ccopy_reg
_reconstructor
p0
(cphylogenetics.homologs
HomologSet
p1
c__builtin__
object
p2
Ntp3
Rp4
(dp5
S'_homologs'
p6
(lp7
g0
(cphylogenetics.homologs
Homolog
p8
g2
Ntp9
Rp10
(dp11
S'evalue'
p12
S'1.81911e-105'
p13
sS'blast_query'
p14
S'gi|51338685|sp|P62837.1|UB2D2_HUMAN'
p15
sS'accession'
p16
S'3TGD_A'
p17
sS'len'
p18
S'152'
p19
sS'defline'
p20
S'Chain A, Crystal Structure Of The Human Ubiquitin-Conjugating Enzyme (E2) Ubch5b'
p21
sS'gid'
p22
S'gi|345111056|pdb|3TGD|A'
p23
sS'id'
p24
S'XX00000000'
p25
sbag0
(g8
g2
Ntp26
Rp27
(dp28
g12
S'2.16019e-105'
p29
sg14
g15
sg16
S'3EB6_B'
p30
sg18
S'149'
p31
sg20
S'Chain B, Structure Of The Ciap2 Ring Domain Bound To Ubch5b'
p32
sg22
S'gi|198443360|pdb|3EB6|B'
p33
sg24
S'XX00000001'
p34
sbag0
(g8
g2
Ntp35
Rp36
(dp37
g12
S'2.5125e-105'
p38
sg14
g15
sg16
S'NP_003330'
p39
sg18
S'147'
p40
sg20
S'ubiquitin-conjugating enzyme E2 D2 isoform 1 [Homo sapiens] >gi|9910600|ref|NP_064296.1| ubiquitin-conjugating enzyme E2 D2 [Mus musculus] >gi|62859579|ref|NP_001016064.1| ubiquitin-conjugating enzyme E2 D3 [Xenopus (Silurana) tropicalis] >gi|82617581|ref|NP_001032369.1| ubiquitin-conjugating enzyme E2 D2 [Rattus norvegicus] >gi|114051077|ref|NP_001039961.1| ubiquitin-conjugating enzyme E2 D2 [Bos taurus] >gi|148223746|ref|NP_001084434.1| ubiquitin-conjugating enzyme E2 D2 [Xenopus laevis] >gi|55624938|ref|XP_517968.1| PREDICTED: ubiquitin-conjugating enzyme E2 D2 [Pan troglodytes] >gi|73949234|ref|XP_855983.1| PREDICTED: ubiquitin-conjugating enzyme E2 D2 isoform X1 [Canis lupus familiaris] >gi|296192899|ref|XP_002744277.1| PREDICTED: ubiquitin-conjugating enzyme E2 D2 isoform X3 [Callithrix jacchus] >gi|297676126|ref|XP_002816000.1| PREDICTED: ubiquitin-conjugating enzyme E2 D2 [Pongo abelii] >gi|327270684|ref|XP_003220119.1| PREDICTED: ubiquitin-conjugating enzyme E2 D2 isoform X1 [Anolis carolinensis] >gi|332234621|ref|XP_003266502.1| PREDICTED: ubiquitin-conjugating enzyme E2 D2 isoform X1 [Nomascus leucogenys] >gi|344265008|ref|XP_003404581.1| PREDICTED: ubiquitin-conjugating enzyme E2 D2 [Loxodonta africana] >gi|397518126|ref|XP_003829247.1| PREDICTED: ubiquitin-conjugating enzyme E2 D2 [Pan paniscus] >gi|466060901|ref|XP_004280345.1| PREDICTED: ubiquitin-conjugating enzyme E2 D2 [Orcinus orca] >gi|471394188|ref|XP_004381120.1| PREDICTED: ubiquitin-conjugating enzyme E2 D2 [Trichechus manatus latirostris] >gi|472356444|ref|XP_004397862.1| PREDICTED: ubiquitin-conjugating enzyme E2 D2 [Odobenus rosmarus divergens] >gi|478491593|ref|XP_004420163.1| PREDICTED: ubiquitin-conjugating enzyme E2 D2 isoform 2 [Ceratotherium simum simum] >gi|504148235|ref|XP_004586528.1| PREDICTED: ubiquitin-conjugating enzyme E2 D2 isoform X2 [Ochotona princeps] >gi|507536921|ref|XP_004652490.1| PREDICTED: ubiquitin-conjugating enzyme E2 D2 [Jaculus jaculus] >gi|507695967|ref|XP_004643295.1| PREDICTED: ubiquitin-conjugating enzyme E2 D2 [Octodon degus] >gi|507960045|ref|XP_004686849.1| PREDICTED: ubiquitin-conjugating enzyme E2 D2 [Condylura cristata] >gi|511840768|ref|XP_004744881.1| PREDICTED: ubiquitin-conjugating enzyme E2 D2 [Mustela putorius furo] >gi|512959221|ref|XP_004841900.1| PREDICTED: ubiquitin-conjugating enzyme E2 D2 [Heterocephalus glaber] >gi|514475082|ref|XP_003477200.2| PREDICTED: ubiquitin-conjugating enzyme E2 D2 [Cavia porcellus] >gi|524922132|ref|XP_005065327.1| PREDICTED: ubiquitin-conjugating enzyme E2 D2 [Mesocricetus auratus] >gi|532026028|ref|XP_005355999.1| PREDICTED: ubiquitin-conjugating enzyme E2 D2 [Microtus ochrogaster] >gi|543359447|ref|XP_005523510.1| PREDICTED: ubiquitin-conjugating enzyme E2 D2 [Pseudopodoces humilis] >gi|544439638|ref|XP_005557993.1| PREDICTED: ubiquitin-conjugating enzyme E2 D2 isoform X1 [Macaca fascicularis] >gi|558115041|ref|XP_006086570.1| PREDICTED: ubiquitin-conjugating enzyme E2 D2 [Myotis lucifugus] >gi|560964432|ref|XP_006204629.1| PREDICTED: ubiquitin-conjugating enzyme E2 D2 isoform X1 [Vicugna pacos] >gi|564257263|ref|XP_006267587.1| PREDICTED: ubiquitin-conjugating enzyme E2 D2-like [Alligator mississippiensis] >gi|573888500|ref|XP_006632019.1| PREDICTED: ubiquitin-conjugating enzyme E2 D2-like [Lepisosteus oculatus] >gi|586471236|ref|XP_006866202.1| PREDICTED: ubiquitin-conjugating enzyme E2 D2 isoform X1 [Chrysochloris asiatica] >gi|589956990|ref|XP_006991099.1| PREDICTED: ubiquitin-conjugating enzyme E2 D2 [Peromyscus maniculatus bairdii] >gi|594095148|ref|XP_006070861.1| PREDICTED: ubiquitin-conjugating enzyme E2 D2 [Bubalus bubalis] >gi|602645134|ref|XP_007429009.1| PREDICTED: ubiquitin-conjugating enzyme E2 D2-like isoform X1 [Python bivittatus] >gi|602698971|ref|XP_007461504.1| PREDICTED: ubiquitin-conjugating enzyme E2 D2 [Lipotes vexillifer] >gi|611973812|ref|XP_007473772.1| PREDICTED: ubiquitin-conjugating enzyme E2 D2 isoform X1 [Monodelphis domestica] >gi|625276505|ref|XP_007629877.1| PREDICTED: ubiquitin-conjugating enzyme E2 D2 isoform X2 [Cricetulus griseus] >gi|634842980|ref|XP_007937167.1| PREDICTED: ubiquitin-conjugating enzyme E2 D2 [Orycteropus afer afer] >gi|635124058|ref|XP_008012828.1| PREDICTED: ubiquitin-conjugating enzyme E2 D2 isoform X1 [Chlorocebus sabaeus] >gi|640787881|ref|XP_008049736.1| PREDICTED: ubiquitin-conjugating enzyme E2 D2 [Tarsius syrichta] >gi|641691366|ref|XP_008139802.1| PREDICTED: ubiquitin-conjugating enzyme E2 D2 [Eptesicus fuscus] >gi|655644376|ref|XP_008253328.1| PREDICTED: ubiquitin-conjugating enzyme E2 D2 [Oryctolagus cuniculus] >gi|664713619|ref|XP_008513773.1| PREDICTED: ubiquitin-conjugating enzyme E2 D2 isoform X1 [Equus przewalskii] >gi|674070793|ref|XP_008842509.1| PREDICTED: ubiquitin-conjugating enzyme E2 D2 [Nannospalax galili] >gi|724942518|ref|XP_010386422.1| PREDICTED: ubiquitin-conjugating enzyme E2 D2 isoform X1 [Rhinopithecus roxellana] >gi|742212135|ref|XP_010896708.1| PREDICTED: ubiquitin-conjugating enzyme E2 D2 isoform X1 [Esox lucius] >gi|759184501|ref|XP_011380572.1| PREDICTED: ubiquitin-conjugating enzyme E2 D2 [Pteropus vampyrus] >gi|795415082|ref|XP_011945841.1| PREDICTED: ubiquitin-conjugating enzyme E2 D2 isoform X2 [Cercocebus atys] >gi|795529186|ref|XP_011714677.1| PREDICTED: ubiquitin-conjugating enzyme E2 D2 isoform X5 [Macaca nemestrina] >gi|803292756|ref|XP_012006041.1| PREDICTED: ubiquitin-conjugating enzyme E2 D2 isoform X3 [Ovis aries musimon] >gi|817252895|ref|XP_012328328.1| PREDICTED: ubiquitin-conjugating enzyme E2 D2 isoform X1 [Aotus nancymaae] >gi|829854143|ref|XP_012637946.1| PREDICTED: ubiquitin-conjugating enzyme E2 D2 [Microcebus murinus] >gi|831271121|ref|XP_012679298.1| PREDICTED: ubiquitin-conjugating enzyme E2 D2 [Clupea harengus] >gi|831296124|ref|XP_012679839.1| PREDICTED: ubiquitin-conjugating enzyme E2 D2 [Clupea harengus] >gi|929082319|ref|XP_014051631.1| PREDICTED: ubiquitin-conjugating enzyme E2 D2 [Salmo salar] >gi|929087665|ref|XP_014054463.1| PREDICTED: ubiquitin-conjugating enzyme E2 D2 isoform X1 [Salmo salar] >gi|929114136|ref|XP_014068474.1| PREDICTED: ubiquitin-conjugating enzyme E2 D2 isoform X2 [Salmo salar] >gi|929215788|ref|XP_013984852.1| PREDICTED: ubiquitin-conjugating enzyme E2 D2 [Salmo salar] >gi|929506216|ref|XP_014126439.1| PREDICTED: ubiquitin-conjugating enzyme E2 D2 [Zonotrichia albicollis] >gi|51338680|sp|P62839.1|UB2D2_RAT RecName: Full=Ubiquitin-conjugating enzyme E2 D2; AltName: Full=Ubiquitin carrier protein D2; AltName: Full=Ubiquitin-conjugating enzyme E2(17)KB 2; AltName: Full=Ubiquitin-conjugating enzyme E2-17 kDa 2; AltName: Full=Ubiquitin-protein ligase D2 >gi|51338685|sp|P62837.1|UB2D2_HUMAN RecName: Full=Ubiquitin-conjugating enzyme E2 D2; AltName: Full=Ubiquitin carrier protein D2; AltName: Full=Ubiquitin-conjugating enzyme E2(17)KB 2; AltName: Full=Ubiquitin-conjugating enzyme E2-17 kDa 2; AltName: Full=Ubiquitin-protein ligase D2; AltName: Full=p53-regulated ubiquitin-conjugating enzyme 1 >gi|51338686|sp|P62838.1|UB2D2_MOUSE RecName: Full=Ubiquitin-conjugating enzyme E2 D2; AltName: Full=Ubiquitin carrier protein D2; AltName: Full=Ubiquitin-conjugating enzyme E2(17)KB 2; AltName: Full=Ubiquitin-conjugating enzyme E2-17 kDa 2; AltName: Full=Ubiquitin-protein ligase D2 >gi|51338687|sp|P62840.1|UB2D2_XENLA RecName: Full=Ubiquitin-conjugating enzyme E2 D2; AltName: Full=Ubiquitin carrier protein 4; Short=xUBC4; AltName: Full=Ubiquitin carrier protein D2; AltName: Full=Ubiquitin-protein ligase D2 >gi|110287999|sp|Q1RMX2.1|UB2D2_BOVIN RecName: Full=Ubiquitin-conjugating enzyme E2 D2; AltName: Full=Ubiquitin carrier protein D2; AltName: Full=Ubiquitin-protein ligase D2 >gi|157880419|pdb|1UR6|A Chain A, Nmr Based Structural Model Of The Ubch5b-Cnot4 Complex >gi|157880610|pdb|1W4U|A Chain A, Nmr Solution Structure Of The Ubiquitin Conjugating Enzyme Ubch5b >gi|374074631|pdb|4A49|B Chain B, Structure Of Phosphotyr371-C-Cbl-Ubch5b Complex >gi|374074634|pdb|4A4B|C Chain C, Structure Of Modified Phosphotyr371-C-Cbl-Ubch5b-Zap-70 Complex >gi|374074637|pdb|4A4C|C Chain C, Structure Of Phosphotyr371-C-Cbl-Ubch5b-Zap-70 Complex >gi|595668|gb|AAA85101.1| ubiquitin conjugating enzyme [Rattus norvegicus] >gi|1145689|gb|AAA91460.1| UbcH5B [Homo sapiens] >gi|1480742|gb|AAB05772.1| ubiquitin conjugating enzyme [Mus musculus] >gi|13278160|gb|AAH03923.1| Ube2d2 protein [Mus musculus] >gi|40363449|dbj|BAD06215.1| ubiquitin conjugating enzyme E2 [Xenopus laevis] >gi|54261475|gb|AAH84359.1| Xubc4 protein [Xenopus laevis] >gi|54673819|gb|AAH33349.1| Ubiquitin-conjugating enzyme E2D 2 (UBC4/5 homolog, yeast) [Homo sapiens] >gi|60686986|gb|AAX35690.1| ubiquitin-conjugating enzyme E2 D2 transcript variant 1 [Homo sapiens] >gi|74137704|dbj|BAE35877.1| unnamed protein product [Mus musculus] >gi|74137855|dbj|BAE24085.1| unnamed protein product [Mus musculus] >gi|74187541|dbj|BAE36719.1| unnamed protein product [Mus musculus] >gi|74195210|dbj|BAE28338.1| unnamed protein product [Mus musculus] >gi|74200078|dbj|BAE22869.1| unnamed protein product [Mus musculus] >gi|89269841|emb|CAJ81618.1| ubiquitin-conjugating enzyme E2D 2 (UBC4/5 homolog, yeast) [Xenopus (Silurana) tropicalis] >gi|92096687|gb|AAI14655.1| Ubiquitin-conjugating enzyme E2D 2 (UBC4/5 homolog, yeast) [Bos taurus] >gi|119582499|gb|EAW62095.1| ubiquitin-conjugating enzyme E2D 2 (UBC4/5 homolog, yeast), isoform CRA_a [Homo sapiens] >gi|119582500|gb|EAW62096.1| ubiquitin-conjugating enzyme E2D 2 (UBC4/5 homolog, yeast), isoform CRA_a [Homo sapiens] >gi|148664729|gb|EDK97145.1| mCG121966 [Mus musculus] >gi|149017227|gb|EDL76278.1| ubc2e ubiquitin conjugating enzyme, isoform CRA_a [Rattus norvegicus] >gi|193785525|dbj|BAG50891.1| unnamed protein product [Homo sapiens] >gi|193785545|dbj|BAG50911.1| unnamed protein product [Homo sapiens] >gi|209154130|gb|ACI33297.1| Ubiquitin-conjugating enzyme E2 D2 [Salmo salar] >gi|209154446|gb|ACI33455.1| Ubiquitin-conjugating enzyme E2 D2 [Salmo salar] >gi|209731988|gb|ACI66863.1| Ubiquitin-conjugating enzyme E2 D2 [Salmo salar] >gi|213625757|gb|AAI71277.1| ubiquitin-conjugating enzyme E2D 3 (UBC4/5 homolog) [Xenopus (Silurana) tropicalis] >gi|213627412|gb|AAI71281.1| ubiquitin-conjugating enzyme E2D 3 (UBC4/5 homolog) [Xenopus (Silurana) tropicalis] >gi|296485229|tpg|DAA27344.1| TPA: ubiquitin-conjugating enzyme E2 D2 [Bos taurus] >gi|307686409|dbj|BAJ21135.1| ubiquitin-conjugating enzyme E2D 2 [synthetic construct] >gi|537236342|gb|ERE85589.1| ubiquitin-conjugating enzyme E2 D3-like protein [Cricetulus griseus] >gi|642083007|emb|CDQ85242.1| unnamed protein product [Oncorhynchus mykiss] >gi|642086944|emb|CDQ83721.1| unnamed protein product [Oncorhynchus mykiss] >gi|642099894|emb|CDQ77207.1| unnamed protein product [Oncorhynchus mykiss] >gi|649103931|gb|AIC49928.1| UBE2D2, partial [synthetic construct]'
p41
sg22
S'gi|4507775|ref|NP_003330.1|'
p42
sg24
S'XX00000002'
p43
sbag0
(g8
g2
Ntp44
Rp45
(dp46
g12
S'2.62982e-105'
p47
sg14
g15
sg16
S'2ESK_A'
p48
sg18
S'149'
p49
sg20
S'Chain A, Human Ubiquitin-Conjugating Enzyme (E2) Ubch5b, Wild-Type'
p50
sg22
S'gi|83754945|pdb|2ESK|A'
p51
sg24
S'XX00000003'
p52
sbag0
(g8
g2
Ntp53
Rp54
(dp55
g12
S'3.87926e-105'
p56
sg14
g15
sg16
S'2CLW_B'
p57
sg18
S'165'
p58
sg20
S'Chain B, Crystal Structure Of Human Ubiquitin-conjugating Enzyme Ubch5b >gi|149240996|pdb|2CLW|C Chain C, Crystal Structure Of Human Ubiquitin-conjugating Enzyme Ubch5b >gi|149240997|pdb|2CLW|D Chain D, Crystal Structure Of Human Ubiquitin-conjugating Enzyme Ubch5b'
p59
sg22
S'gi|149240995|pdb|2CLW|B'
p60
sg24
S'XX00000004'
p61
sbag0
(g8
g2
Ntp62
Rp63
(dp64
g12
S'6.71276e-105'
p65
sg14
g15
sg16
S'3L1Y_A'
p66
sg18
S'157'
p67
sg20
S'Chain A, Crystal Structure Of Human Ubc4 E2 Conjugating Enzyme'
p68
sg22
S'gi|295789407|pdb|3L1Y|A'
p69
sg24
S'XX00000005'
p70
sbag0
(g8
g2
Ntp71
Rp72
(dp73
g12
S'7.33255e-105'
p74
sg14
g15
sg16
S'XP_008325716'
p75
sg18
S'147'
p76
sg20
S'PREDICTED: ubiquitin-conjugating enzyme E2 D1 [Cynoglossus semilaevis]'
p77
sg22
S'gi|657797321|ref|XP_008325716.1|'
p78
sg24
S'XX00000006'
p79
sbag0
(g8
g2
Ntp80
Rp81
(dp82
g12
S'9.22419e-105'
p83
sg14
g15
sg16
S'AAC41750'
p84
sg18
S'147'
p85
sg20
S'ubiquitin conjugating enzyme [Homo sapiens] >gi|1096569|prf||2111484A ubiquitin-conjugating enzyme'
p86
sg22
S'gi|765056|gb|AAC41750.1|'
p87
sg24
S'XX00000007'
p88
sbag0
(g8
g2
Ntp89
Rp90
(dp91
g12
S'1.24135e-104'
p92
sg14
g15
sg16
S'2ESO_A'
p93
sg18
S'149'
p94
sg20
S'Chain A, Human Ubiquitin-Conjugating Enzyme (E2) Ubch5b Mutant Ile37ala'
p95
sg22
S'gi|83754948|pdb|2ESO|A'
p96
sg24
S'XX00000008'
p97
sbag0
(g8
g2
Ntp98
Rp99
(dp100
g12
S'1.24135e-104'
p101
sg14
g15
sg16
S'2ESP_A'
p102
sg18
S'149'
p103
sg20
S'Chain A, Human Ubiquitin-Conjugating Enzyme (E2) Ubch5b Mutant Ile88ala'
p104
sg22
S'gi|83754949|pdb|2ESP|A'
p105
sg24
S'XX00000009'
p106
sbag0
(g8
g2
Ntp107
Rp108
(dp109
g12
S'1.31106e-104'
p110
sg14
g15
sg16
S'2ESQ_A'
p111
sg18
S'149'
p112
sg20
S'Chain A, Human Ubiquitin-Conjugating Enzyme (E2) Ubch5b Mutant Ser94gly'
p113
sg22
S'gi|83754950|pdb|2ESQ|A'
p114
sg24
S'XX00000010'
p115
sbag0
(g8
g2
Ntp116
Rp117
(dp118
g12
S'2.36105e-104'
p119
sg14
g15
sg16
S'NP_001297943'
p120
sg18
S'147'
p121
sg20
S'ubiquitin-conjugating enzyme E2 D2 [Esox lucius] >gi|225715466|gb|ACO13579.1| Ubiquitin-conjugating enzyme E2 D2 [Esox lucius]'
p122
sg22
S'gi|899146055|ref|NP_001297943.1|'
p123
sg24
S'XX00000011'
p124
sbag0
(g8
g2
Ntp125
Rp126
(dp127
g12
S'2.83038e-104'
p128
sg14
g15
sg16
S'4DDG_A'
p129
sg18
S'399'
p130
sg20
S'Chain A, Crystal Structure Of Human Otub1UBCH5B~UBUB >gi|388328108|pdb|4DDG|B Chain B, Crystal Structure Of Human Otub1UBCH5B~UBUB >gi|388328109|pdb|4DDG|C Chain C, Crystal Structure Of Human Otub1UBCH5B~UBUB >gi|388328113|pdb|4DDG|J Chain J, Crystal Structure Of Human Otub1UBCH5B~UBUB >gi|388328114|pdb|4DDG|K Chain K, Crystal Structure Of Human Otub1UBCH5B~UBUB >gi|388328115|pdb|4DDG|L Chain L, Crystal Structure Of Human Otub1UBCH5B~UBUB >gi|388328120|pdb|4DDI|A Chain A, Crystal Structure Of Human Otub1UBCH5B~UBUB >gi|388328121|pdb|4DDI|B Chain B, Crystal Structure Of Human Otub1UBCH5B~UBUB >gi|388328122|pdb|4DDI|C Chain C, Crystal Structure Of Human Otub1UBCH5B~UBUB'
p131
sg22
S'gi|388328107|pdb|4DDG|A'
p132
sg24
S'XX00000012'
p133
sbag0
(g8
g2
Ntp134
Rp135
(dp136
g12
S'3.17141e-104'
p137
sg14
g15
sg16
S'NP_001072141'
p138
sg18
S'147'
p139
sg20
S'ubiquitin-conjugating enzyme E2 D2 [Sus scrofa] >gi|121957312|sp|Q06AA9.1|UB2D2_PIG RecName: Full=Ubiquitin-conjugating enzyme E2 D2; AltName: Full=Ubiquitin carrier protein D2; AltName: Full=Ubiquitin-protein ligase D2 >gi|115371733|gb|ABI96191.1| UB2D2 [Sus scrofa]'
p140
sg22
S'gi|118403848|ref|NP_001072141.1|'
p141
sg24
S'XX00000013'
p142
sbag0
(g8
g2
Ntp143
Rp144
(dp145
g12
S'3.18029e-104'
p146
sg14
g15
sg16
S'3A33_A'
p147
sg18
S'150'
p148
sg20
S'Chain A, Ubch5b~ubiquitin Conjugate'
p149
sg22
S'gi|269914374|pdb|3A33|A'
p150
sg24
S'XX00000014'
p151
sbag0
(g8
g2
Ntp152
Rp153
(dp154
g12
S'3.38943e-104'
p155
sg14
g15
sg16
S'4LDT_C'
p156
sg18
S'148'
p157
sg20
S'Chain C, The Structure Of H/ceotub1-ubiquitin Aldehyde-ubch5b~ub >gi|744699254|pdb|4WZ3|A Chain A, Crystal Structure Of The Complex Between Lubx/legu2/lpp2887 U-box 1 And Homo Sapiens Ube2d2'
p158
sg22
S'gi|530537693|pdb|4LDT|C'
p159
sg24
S'XX00000015'
p160
sbag0
(g8
g2
Ntp161
Rp162
(dp163
g12
S'5.01868e-104'
p164
sg14
g15
sg16
S'XP_003451814'
p165
sg18
S'147'
p166
sg20
S'PREDICTED: ubiquitin-conjugating enzyme E2 D2 isoform X1 [Oreochromis niloticus] >gi|432880235|ref|XP_004073617.1| PREDICTED: ubiquitin-conjugating enzyme E2 D2 isoform X3 [Oryzias latipes] >gi|499025003|ref|XP_004563255.1| PREDICTED: ubiquitin-conjugating enzyme E2 D2 [Maylandia zebra] >gi|548333358|ref|XP_005719531.1| PREDICTED: ubiquitin-conjugating enzyme E2 D2 isoform X1 [Pundamilia nyererei] >gi|551519345|ref|XP_005811168.1| PREDICTED: ubiquitin-conjugating enzyme E2 D2-like [Xiphophorus maculatus] >gi|554811635|ref|XP_005916672.1| PREDICTED: ubiquitin-conjugating enzyme E2 D2 isoform X1 [Haplochromis burtoni] >gi|583972985|ref|XP_006781899.1| PREDICTED: ubiquitin-conjugating enzyme E2 D2-like [Neolamprologus brichardi] >gi|617450464|ref|XP_007568403.1| PREDICTED: ubiquitin-conjugating enzyme E2 D2 [Poecilia formosa] >gi|657552085|ref|XP_008280419.1| PREDICTED: ubiquitin-conjugating enzyme E2 D2 [Stegastes partitus] >gi|658870312|ref|XP_008418065.1| PREDICTED: ubiquitin-conjugating enzyme E2 D2 [Poecilia reticulata] >gi|734607904|ref|XP_010731173.1| PREDICTED: ubiquitin-conjugating enzyme E2 D2 [Larimichthys crocea] >gi|736177850|ref|XP_010767761.1| PREDICTED: ubiquitin-conjugating enzyme E2 D2 [Notothenia coriiceps] >gi|831534578|ref|XP_012722300.1| PREDICTED: ubiquitin-conjugating enzyme E2 D2 [Fundulus heteroclitus] >gi|928078355|ref|XP_013889221.1| PREDICTED: ubiquitin-conjugating enzyme E2 D2 [Austrofundulus limnaeus] >gi|808882733|gb|KKF30054.1| Ubiquitin-conjugating enzyme E2 D2 [Larimichthys crocea]'
p167
sg22
S'gi|348528619|ref|XP_003451814.1|'
p168
sg24
S'XX00000016'
p169
sbag0
(g8
g2
Ntp170
Rp171
(dp172
g12
S'5.7848e-104'
p173
sg14
g15
sg16
S'XP_014054871'
p174
sg18
S'147'
p175
sg20
S'PREDICTED: ubiquitin-conjugating enzyme E2 D3 isoform X1 [Salmo salar] >gi|221220484|gb|ACM08903.1| Ubiquitin-conjugating enzyme E2 D2 [Salmo salar] >gi|223647310|gb|ACN10413.1| Ubiquitin-conjugating enzyme E2 D2 [Salmo salar] >gi|223673193|gb|ACN12778.1| Ubiquitin-conjugating enzyme E2 D2 [Salmo salar]'
p176
sg22
S'gi|929088430|ref|XP_014054871.1|'
p177
sg24
S'XX00000017'
p178
sbag0
(g8
g2
Ntp179
Rp180
(dp181
g12
S'7.27704e-104'
p182
sg14
g15
sg16
S'NP_957253'
p183
sg18
S'147'
p184
sg20
S'ubiquitin-conjugating enzyme E2 D2 [Danio rerio] >gi|318053993|ref|NP_001187535.1| ubiquitin-conjugating enzyme e2 d2 [Ictalurus punctatus] >gi|29124433|gb|AAH48896.1| Zgc:55886 protein [Danio rerio] >gi|41351441|gb|AAH65678.1| Zgc:55886 [Danio rerio] >gi|182890642|gb|AAI64949.1| Zgc:55886 protein [Danio rerio] >gi|308322035|gb|ADO28155.1| ubiquitin-conjugating enzyme e2 d2 [Ictalurus furcatus] >gi|308323291|gb|ADO28782.1| ubiquitin-conjugating enzyme e2 d2 [Ictalurus punctatus]'
p185
sg22
S'gi|41055694|ref|NP_957253.1|'
p186
sg24
S'XX00000018'
p187
sbag0
(g8
g2
Ntp188
Rp189
(dp190
g12
S'7.51957e-104'
p191
sg14
g15
sg16
S'XP_004718182'
p192
sg18
S'147'
p193
sg20
S'PREDICTED: ubiquitin-conjugating enzyme E2 D2 [Echinops telfairi]'
p194
sg22
S'gi|850270311|ref|XP_004718182.2|'
p195
sg24
S'XX00000019'
p196
sbag0
(g8
g2
Ntp197
Rp198
(dp199
g12
S'8.76269e-104'
p200
sg14
g15
sg16
S'XP_007172321'
p201
sg18
S'147'
p202
sg20
S'PREDICTED: ubiquitin-conjugating enzyme E2 D2 [Balaenoptera acutorostrata scammoni]'
p203
sg22
S'gi|594638034|ref|XP_007172321.1|'
p204
sg24
S'XX00000020'
p205
sbag0
(g8
g2
Ntp206
Rp207
(dp208
g12
S'9.02162e-104'
p209
sg14
g15
sg16
S'2CLW_A'
p210
sg18
S'165'
p211
sg20
S'Chain A, Crystal Structure Of Human Ubiquitin-conjugating Enzyme Ubch5b'
p212
sg22
S'gi|149240994|pdb|2CLW|A'
p213
sg24
S'XX00000021'
p214
sbag0
(g8
g2
Ntp215
Rp216
(dp217
g12
S'9.05473e-104'
p218
sg14
g15
sg16
S'XP_010877649'
p219
sg18
S'147'
p220
sg20
S'PREDICTED: ubiquitin-conjugating enzyme E2 D2-like isoform X2 [Esox lucius]'
p221
sg22
S'gi|742136142|ref|XP_010877649.1|'
p222
sg24
S'XX00000022'
p223
sbag0
(g8
g2
Ntp224
Rp225
(dp226
g12
S'9.66833e-104'
p227
sg14
g15
sg16
S'XP_010901802'
p228
sg18
S'147'
p229
sg20
S'PREDICTED: ubiquitin-conjugating enzyme E2 D2 isoform X2 [Esox lucius]'
p230
sg22
S'gi|742093731|ref|XP_010901802.1|'
p231
sg24
S'XX00000023'
p232
sbag0
(g8
g2
Ntp233
Rp234
(dp235
g12
S'1.52996e-103'
p236
sg14
g15
sg16
S'XP_012696793'
p237
sg18
S'147'
p238
sg20
S'PREDICTED: ubiquitin-conjugating enzyme E2 D3 isoform X2 [Clupea harengus]'
p239
sg22
S'gi|831276523|ref|XP_012696793.1|'
p240
sg24
S'XX00000024'
p241
sbag0
(g8
g2
Ntp242
Rp243
(dp244
g12
S'1.63364e-103'
p245
sg14
g15
sg16
S'XP_003970157'
p246
sg18
S'147'
p247
sg20
S'PREDICTED: ubiquitin-conjugating enzyme E2 D2 [Takifugu rubripes] >gi|768936849|ref|XP_011608702.1| PREDICTED: ubiquitin-conjugating enzyme E2 D2 [Takifugu rubripes]'
p248
sg22
S'gi|410913361|ref|XP_003970157.1|'
p249
sg24
S'XX00000025'
p250
sbag0
(g8
g2
Ntp251
Rp252
(dp253
g12
S'2.04899e-103'
p254
sg14
g15
sg16
S'XP_009888993'
p255
sg18
S'281'
p256
sg20
S'PREDICTED: ubiquitin-conjugating enzyme E2 D2 [Charadrius vociferus]'
p257
sg22
S'gi|699690857|ref|XP_009888993.1|'
p258
sg24
S'XX00000026'
p259
sbag0
(g8
g2
Ntp260
Rp261
(dp262
g12
S'2.05504e-103'
p263
sg14
g15
sg16
S'AJA90881'
p264
sg18
S'147'
p265
sg20
S'ubiquitin-conjugating enzyme UBE2D [Lethenteron camtschaticum]'
p266
sg22
S'gi|741207773|gb|AJA90881.1|'
p267
sg24
S'XX00000027'
p268
sbag0
(g8
g2
Ntp269
Rp270
(dp271
g12
S'2.55704e-103'
p272
sg14
g15
sg16
S'XP_014067668'
p273
sg18
S'147'
p274
sg20
S'PREDICTED: ubiquitin-conjugating enzyme E2 D2-like isoform X2 [Salmo salar] >gi|221220092|gb|ACM08707.1| Ubiquitin-conjugating enzyme E2 D2 [Salmo salar] >gi|642108177|emb|CDQ72611.1| unnamed protein product [Oncorhynchus mykiss]'
p275
sg22
S'gi|929112625|ref|XP_014067668.1|'
p276
sg24
S'XX00000028'
p277
sbag0
(g8
g2
Ntp278
Rp279
(dp280
g12
S'3.62748e-103'
p281
sg14
g15
sg16
S'XP_010989038'
p282
sg18
S'147'
p283
sg20
S'PREDICTED: ubiquitin-conjugating enzyme E2 D2 [Camelus dromedarius]'
p284
sg22
S'gi|744596512|ref|XP_010989038.1|'
p285
sg24
S'XX00000029'
p286
sbag0
(g8
g2
Ntp287
Rp288
(dp289
g12
S'3.91584e-103'
p290
sg14
g15
sg16
S'XP_007646064'
p291
sg18
S'147'
p292
sg20
S'PREDICTED: ubiquitin-conjugating enzyme E2 D2 isoform X1 [Cricetulus griseus]'
p293
sg22
S'gi|625210334|ref|XP_007646064.1|'
p294
sg24
S'XX00000030'
p295
sbag0
(g8
g2
Ntp296
Rp297
(dp298
g12
S'6.12391e-103'
p299
sg14
g15
sg16
S'4V3L_A'
p300
sg18
S'146'
p301
sg20
S'Chain A, Rnf38-ub-ubch5b-ub Complex'
p302
sg22
S'gi|806394281|pdb|4V3L|A'
p303
sg24
S'XX00000031'
p304
sbag0
(g8
g2
Ntp305
Rp306
(dp307
g12
S'1.10674e-102'
p308
sg14
g15
sg16
S'XP_012696785'
p309
sg18
S'148'
p310
sg20
S'PREDICTED: ubiquitin-conjugating enzyme E2 D3 isoform X1 [Clupea harengus]'
p311
sg22
S'gi|831276521|ref|XP_012696785.1|'
p312
sg24
S'XX00000032'
p313
sbag0
(g8
g2
Ntp314
Rp315
(dp316
g12
S'1.23452e-102'
p317
sg14
g15
sg16
S'NP_001133066'
p318
sg18
S'148'
p319
sg20
S'ubiquitin-conjugating enzyme E2 D3 [Salmo salar] >gi|197631801|gb|ACH70624.1| ubiquitin-conjugating enzyme E2D 2 isoform 1 [Salmo salar] >gi|642112484|emb|CDQ70075.1| unnamed protein product [Oncorhynchus mykiss]'
p320
sg22
S'gi|213511604|ref|NP_001133066.1|'
p321
sg24
S'XX00000033'
p322
sbag0
(g8
g2
Ntp323
Rp324
(dp325
g12
S'1.24701e-102'
p326
sg14
g15
sg16
S'XP_013984369'
p327
sg18
S'147'
p328
sg20
S'PREDICTED: ubiquitin-conjugating enzyme E2 D2-like [Salmo salar] >gi|221221252|gb|ACM09287.1| Ubiquitin-conjugating enzyme E2 D2 [Salmo salar] >gi|223649226|gb|ACN11371.1| Ubiquitin-conjugating enzyme E2 D2 [Salmo salar]'
p329
sg22
S'gi|929050774|ref|XP_013984369.1|'
p330
sg24
S'XX00000034'
p331
sbag0
(g8
g2
Ntp332
Rp333
(dp334
g12
S'1.40628e-102'
p335
sg14
g15
sg16
S'NP_003331'
p336
sg18
S'147'
p337
sg20
S'ubiquitin-conjugating enzyme E2 D3 isoform 1 [Homo sapiens] >gi|13384718|ref|NP_079632.1| ubiquitin-conjugating enzyme E2 D3 [Mus musculus] >gi|13676843|ref|NP_112516.1| ubiquitin-conjugating enzyme E2 D3 [Rattus norvegicus] >gi|33149310|ref|NP_871615.1| ubiquitin-conjugating enzyme E2 D3 isoform 1 [Homo sapiens] >gi|33149312|ref|NP_871616.1| ubiquitin-conjugating enzyme E2 D3 isoform 1 [Homo sapiens] >gi|33149314|ref|NP_871617.1| ubiquitin-conjugating enzyme E2 D3 isoform 1 [Homo sapiens] >gi|33149316|ref|NP_871618.1| ubiquitin-conjugating enzyme E2 D3 isoform 1 [Homo sapiens] >gi|33149318|ref|NP_871619.1| ubiquitin-conjugating enzyme E2 D3 isoform 1 [Homo sapiens] >gi|33149320|ref|NP_871620.1| ubiquitin-conjugating enzyme E2 D3 isoform 1 [Homo sapiens] >gi|71896625|ref|NP_001026324.1| ubiquitin-conjugating enzyme E2 D3 [Gallus gallus] >gi|386781424|ref|NP_001248133.1| ubiquitin-conjugating enzyme E2 D3 [Macaca mulatta] >gi|291401359|ref|XP_002717257.1| PREDICTED: ubiquitin-conjugating enzyme E2 D3 isoform X2 [Oryctolagus cuniculus] >gi|296195879|ref|XP_002745585.1| PREDICTED: ubiquitin-conjugating enzyme E2 D3 isoform X2 [Callithrix jacchus] >gi|296195883|ref|XP_002745587.1| PREDICTED: ubiquitin-conjugating enzyme E2 D3 isoform X2 [Callithrix jacchus] >gi|297674055|ref|XP_002815054.1| PREDICTED: ubiquitin-conjugating enzyme E2 D3 isoform X1 [Pongo abelii] >gi|297674059|ref|XP_002815056.1| PREDICTED: ubiquitin-conjugating enzyme E2 D3 isoform X1 [Pongo abelii] >gi|311262747|ref|XP_003129334.1| PREDICTED: ubiquitin-conjugating enzyme E2 D3 isoform X2 [Sus scrofa] >gi|332216759|ref|XP_003257519.1| PREDICTED: ubiquitin-conjugating enzyme E2 D3 isoform X4 [Nomascus leucogenys] >gi|332216761|ref|XP_003257520.1| PREDICTED: ubiquitin-conjugating enzyme E2 D3 isoform X4 [Nomascus leucogenys] >gi|332216763|ref|XP_003257521.1| PREDICTED: ubiquitin-conjugating enzyme E2 D3 isoform X4 [Nomascus leucogenys] >gi|332216765|ref|XP_003257522.1| PREDICTED: ubiquitin-conjugating enzyme E2 D3 isoform X4 [Nomascus leucogenys] >gi|354505255|ref|XP_003514686.1| PREDICTED: ubiquitin-conjugating enzyme E2 D3-like [Cricetulus griseus] >gi|390460578|ref|XP_003732508.1| PREDICTED: ubiquitin-conjugating enzyme E2 D3 isoform X2 [Callithrix jacchus] >gi|390460582|ref|XP_003732510.1| PREDICTED: ubiquitin-conjugating enzyme E2 D3 isoform X2 [Callithrix jacchus] >gi|395542115|ref|XP_003772980.1| PREDICTED: ubiquitin-conjugating enzyme E2 D3 [Sarcophilus harrisii] >gi|395735199|ref|XP_003776546.1| PREDICTED: ubiquitin-conjugating enzyme E2 D3 isoform X1 [Pongo abelii] >gi|395735205|ref|XP_003776549.1| PREDICTED: ubiquitin-conjugating enzyme E2 D3 isoform X1 [Pongo abelii] >gi|397475347|ref|XP_003809104.1| PREDICTED: ubiquitin-conjugating enzyme E2 D3 [Pan paniscus] >gi|397519731|ref|XP_003830007.1| PREDICTED: ubiquitin-conjugating enzyme E2 D3 [Pan paniscus] >gi|397525673|ref|XP_003832782.1| PREDICTED: ubiquitin-conjugating enzyme E2 D3 [Pan paniscus] >gi|402870095|ref|XP_003899075.1| PREDICTED: ubiquitin-conjugating enzyme E2 D3 isoform X5 [Papio anubis] >gi|402870097|ref|XP_003899076.1| PREDICTED: ubiquitin-conjugating enzyme E2 D3 isoform X5 [Papio anubis] >gi|402870099|ref|XP_003899077.1| PREDICTED: ubiquitin-conjugating enzyme E2 D3 isoform X5 [Papio anubis] >gi|402870107|ref|XP_003899081.1| PREDICTED: ubiquitin-conjugating enzyme E2 D3 isoform X5 [Papio anubis] >gi|403275652|ref|XP_003929551.1| PREDICTED: ubiquitin-conjugating enzyme E2 D3 isoform X2 [Saimiri boliviensis boliviensis] >gi|403275656|ref|XP_003929553.1| PREDICTED: ubiquitin-conjugating enzyme E2 D3 isoform X2 [Saimiri boliviensis boliviensis] >gi|403275658|ref|XP_003929554.1| PREDICTED: ubiquitin-conjugating enzyme E2 D3 isoform X2 [Saimiri boliviensis boliviensis] >gi|410957109|ref|XP_003985177.1| PREDICTED: ubiquitin-conjugating enzyme E2 D3 isoform X2 [Felis catus] >gi|426223533|ref|XP_004005929.1| PREDICTED: ubiquitin-conjugating enzyme E2 D3 [Ovis aries] >gi|426231369|ref|XP_004009711.1| PREDICTED: ubiquitin-conjugating enzyme E2 D3 isoform X2 [Ovis aries] >gi|426231373|ref|XP_004009713.1| PREDICTED: ubiquitin-conjugating enzyme E2 D3 isoform X2 [Ovis aries] >gi|426234867|ref|XP_004011413.1| PREDICTED: ubiquitin-conjugating enzyme E2 D3 [Ovis aries] >gi|441625514|ref|XP_004089080.1| PREDICTED: ubiquitin-conjugating enzyme E2 D3 isoform X4 [Nomascus leucogenys] >gi|441625520|ref|XP_004089081.1| PREDICTED: ubiquitin-conjugating enzyme E2 D3 isoform X4 [Nomascus leucogenys] >gi|441625525|ref|XP_004089082.1| PREDICTED: ubiquitin-conjugating enzyme E2 D3 isoform X4 [Nomascus leucogenys] >gi|465972266|ref|XP_004263622.1| PREDICTED: ubiquitin-conjugating enzyme E2 D3 [Orcinus orca] >gi|465997736|ref|XP_004267835.1| PREDICTED: ubiquitin-conjugating enzyme E2 D3 [Orcinus orca] >gi|470627994|ref|XP_004320914.1| PREDICTED: ubiquitin-conjugating enzyme E2 D3-like isoform 2 [Tursiops truncatus] >gi|470627996|ref|XP_004320915.1| PREDICTED: ubiquitin-conjugating enzyme E2 D3-like isoform 3 [Tursiops truncatus] >gi|470627998|ref|XP_004320916.1| PREDICTED: ubiquitin-conjugating enzyme E2 D3-like isoform 4 [Tursiops truncatus] >gi|471391368|ref|XP_004380249.1| PREDICTED: ubiquitin-conjugating enzyme E2 D3 isoform X2 [Trichechus manatus latirostris] >gi|471391372|ref|XP_004380250.1| PREDICTED: ubiquitin-conjugating enzyme E2 D3 isoform X2 [Trichechus manatus latirostris] >gi|471391375|ref|XP_004380251.1| PREDICTED: ubiquitin-conjugating enzyme E2 D3 isoform X2 [Trichechus manatus latirostris] >gi|472364709|ref|XP_004401916.1| PREDICTED: ubiquitin-conjugating enzyme E2 D3 isoform X3 [Odobenus rosmarus divergens] >gi|472364711|ref|XP_004401917.1| PREDICTED: ubiquitin-conjugating enzyme E2 D3 isoform X3 [Odobenus rosmarus divergens] >gi|472364713|ref|XP_004401918.1| PREDICTED: ubiquitin-conjugating enzyme E2 D3 isoform X3 [Odobenus rosmarus divergens] >gi|472364719|ref|XP_004401921.1| PREDICTED: ubiquitin-conjugating enzyme E2 D3 isoform X3 [Odobenus rosmarus divergens] >gi|478513616|ref|XP_004431063.1| PREDICTED: ubiquitin-conjugating enzyme E2 D3 isoform 1 [Ceratotherium simum simum] >gi|478513618|ref|XP_004431064.1| PREDICTED: ubiquitin-conjugating enzyme E2 D3 isoform 2 [Ceratotherium simum simum] >gi|478513620|ref|XP_004431065.1| PREDICTED: ubiquitin-conjugating enzyme E2 D3 isoform 3 [Ceratotherium simum simum] >gi|478513622|ref|XP_004431066.1| PREDICTED: ubiquitin-conjugating enzyme E2 D3 isoform 4 [Ceratotherium simum simum] >gi|488536494|ref|XP_004459928.1| PREDICTED: ubiquitin-conjugating enzyme E2 D3 isoform X2 [Dasypus novemcinctus] >gi|504169478|ref|XP_004594345.1| PREDICTED: ubiquitin-conjugating enzyme E2 D3 isoform X2 [Ochotona princeps] >gi|504169480|ref|XP_004594346.1| PREDICTED: ubiquitin-conjugating enzyme E2 D3 isoform X2 [Ochotona princeps] >gi|504169482|ref|XP_004594347.1| PREDICTED: ubiquitin-conjugating enzyme E2 D3 isoform X2 [Ochotona princeps] >gi|504169487|ref|XP_004594349.1| PREDICTED: ubiquitin-conjugating enzyme E2 D3 isoform X2 [Ochotona princeps] >gi|507558619|ref|XP_004663045.1| PREDICTED: ubiquitin-conjugating enzyme E2 D3 [Jaculus jaculus] >gi|507558621|ref|XP_004663046.1| PREDICTED: ubiquitin-conjugating enzyme E2 D3 [Jaculus jaculus] >gi|507697900|ref|XP_004643765.1| PREDICTED: ubiquitin-conjugating enzyme E2 D3 [Octodon degus] >gi|511847655|ref|XP_004748206.1| PREDICTED: ubiquitin-conjugating enzyme E2 D3 isoform X2 [Mustela putorius furo] >gi|511847657|ref|XP_004748207.1| PREDICTED: ubiquitin-conjugating enzyme E2 D3 isoform X2 [Mustela putorius furo] >gi|513009803|ref|XP_004866320.1| PREDICTED: ubiquitin-conjugating enzyme E2 D3 [Heterocephalus glaber] >gi|513009807|ref|XP_004866322.1| PREDICTED: ubiquitin-conjugating enzyme E2 D3 [Heterocephalus glaber] >gi|513009809|ref|XP_004866323.1| PREDICTED: ubiquitin-conjugating enzyme E2 D3 [Heterocephalus glaber] >gi|524964232|ref|XP_005082031.1| PREDICTED: ubiquitin-conjugating enzyme E2 D3 [Mesocricetus auratus] >gi|527260918|ref|XP_005148707.1| PREDICTED: ubiquitin-conjugating enzyme E2 D3 isoform X1 [Melopsittacus undulatus] >gi|530588405|ref|XP_005287918.1| PREDICTED: ubiquitin-conjugating enzyme E2 D3 isoform X2 [Chrysemys picta bellii] >gi|532028841|ref|XP_005357378.1| PREDICTED: ubiquitin-conjugating enzyme E2 D3 [Microtus ochrogaster] >gi|532028843|ref|XP_005357379.1| PREDICTED: ubiquitin-conjugating enzyme E2 D3 [Microtus ochrogaster] >gi|532080076|ref|XP_005325798.1| PREDICTED: ubiquitin-conjugating enzyme E2 D3 [Ictidomys tridecemlineatus] >gi|532080078|ref|XP_005325799.1| PREDICTED: ubiquitin-conjugating enzyme E2 D3 [Ictidomys tridecemlineatus] >gi|533186583|ref|XP_005406304.1| PREDICTED: ubiquitin-conjugating enzyme E2 D3 isoform X2 [Chinchilla lanigera] >gi|542151718|ref|XP_005484765.1| PREDICTED: ubiquitin-conjugating enzyme E2 D3 [Zonotrichia albicollis] >gi|543342382|ref|XP_005517546.1| PREDICTED: ubiquitin-conjugating enzyme E2 D3 isoform X2 [Pseudopodoces humilis] >gi|545846553|ref|XP_005656608.1| PREDICTED: ubiquitin-conjugating enzyme E2 D3 isoform X2 [Sus scrofa] >gi|545846555|ref|XP_005656609.1| PREDICTED: ubiquitin-conjugating enzyme E2 D3 isoform X2 [Sus scrofa] >gi|545846557|ref|XP_005656610.1| PREDICTED: ubiquitin-conjugating enzyme E2 D3 isoform X2 [Sus scrofa] >gi|548469754|ref|XP_005681420.1| PREDICTED: ubiquitin-conjugating enzyme E2 D3 [Capra hircus] >gi|555975783|ref|XP_005899872.1| PREDICTED: ubiquitin-conjugating enzyme E2 D3 isoform X1 [Bos mutus] >gi|555975785|ref|XP_005899873.1| PREDICTED: ubiquitin-conjugating enzyme E2 D3 isoform X2 [Bos mutus] >gi|555975787|ref|XP_005899874.1| PREDICTED: ubiquitin-conjugating enzyme E2 D3 isoform X3 [Bos mutus] >gi|556737577|ref|XP_005964374.1| PREDICTED: ubiquitin-conjugating enzyme E2 D3 isoform X1 [Pantholops hodgsonii] >gi|556737579|ref|XP_005964375.1| PREDICTED: ubiquitin-conjugating enzyme E2 D3 isoform X2 [Pantholops hodgsonii] >gi|556743821|ref|XP_005967415.1| PREDICTED: ubiquitin-conjugating enzyme E2 D3-like [Pantholops hodgsonii] >gi|558179585|ref|XP_006126957.1| PREDICTED: ubiquitin-conjugating enzyme E2 D3 isoform X2 [Pelodiscus sinensis] >gi|560991626|ref|XP_006217955.1| PREDICTED: ubiquitin-conjugating enzyme E2 D3 isoform X1 [Vicugna pacos] >gi|560991628|ref|XP_006217956.1| PREDICTED: ubiquitin-conjugating enzyme E2 D3 isoform X2 [Vicugna pacos] >gi|560991630|ref|XP_006217957.1| PREDICTED: ubiquitin-conjugating enzyme E2 D3 isoform X3 [Vicugna pacos] >gi|562844460|ref|XP_006151206.1| PREDICTED: ubiquitin-conjugating enzyme E2 D3 isoform X1 [Tupaia chinensis] >gi|562844462|ref|XP_006151207.1| PREDICTED: ubiquitin-conjugating enzyme E2 D3 isoform X2 [Tupaia chinensis] >gi|562844464|ref|XP_006151208.1| PREDICTED: ubiquitin-conjugating enzyme E2 D3 isoform X3 [Tupaia chinensis] >gi|564267968|ref|XP_006272785.1| PREDICTED: ubiquitin-conjugating enzyme E2 D3 [Alligator mississippiensis] >gi|564338878|ref|XP_006233398.1| PREDICTED: ubiquitin-conjugating enzyme E2 D3 isoform X1 [Rattus norvegicus] >gi|564338880|ref|XP_006233399.1| PREDICTED: ubiquitin-conjugating enzyme E2 D3 isoform X1 [Rattus norvegicus] >gi|564338882|ref|XP_006233400.1| PREDICTED: ubiquitin-conjugating enzyme E2 D3 isoform X1 [Rattus norvegicus] >gi|568923613|ref|XP_006501936.1| PREDICTED: ubiquitin-conjugating enzyme E2 D3 isoform X1 [Mus musculus] >gi|568923615|ref|XP_006501937.1| PREDICTED: ubiquitin-conjugating enzyme E2 D3 isoform X1 [Mus musculus] >gi|568923617|ref|XP_006501938.1| PREDICTED: ubiquitin-conjugating enzyme E2 D3 isoform X1 [Mus musculus] >gi|568923619|ref|XP_006501939.1| PREDICTED: ubiquitin-conjugating enzyme E2 D3 isoform X1 [Mus musculus] >gi|585160823|ref|XP_006732638.1| PREDICTED: ubiquitin-conjugating enzyme E2 D3 isoform X3 [Leptonychotes weddellii] >gi|585160825|ref|XP_006732639.1| PREDICTED: ubiquitin-conjugating enzyme E2 D3 isoform X4 [Leptonychotes weddellii] >gi|585160827|ref|XP_006732640.1| PREDICTED: ubiquitin-conjugating enzyme E2 D3 isoform X5 [Leptonychotes weddellii] >gi|585160829|ref|XP_006732641.1| PREDICTED: ubiquitin-conjugating enzyme E2 D3 isoform X6 [Leptonychotes weddellii] >gi|585685558|ref|XP_006893155.1| PREDICTED: ubiquitin-conjugating enzyme E2 D3-like isoform X1 [Elephantulus edwardii] >gi|585685562|ref|XP_006893156.1| PREDICTED: ubiquitin-conjugating enzyme E2 D3-like isoform X2 [Elephantulus edwardii] >gi|586484557|ref|XP_006872777.1| PREDICTED: ubiquitin-conjugating enzyme E2 D3 isoform X2 [Chrysochloris asiatica] >gi|586484559|ref|XP_006872778.1| PREDICTED: ubiquitin-conjugating enzyme E2 D3 isoform X3 [Chrysochloris asiatica] >gi|586484561|ref|XP_006872779.1| PREDICTED: ubiquitin-conjugating enzyme E2 D3 isoform X4 [Chrysochloris asiatica] >gi|586528031|ref|XP_006918939.1| PREDICTED: ubiquitin-conjugating enzyme E2 D3 isoform X1 [Pteropus alecto] >gi|586528033|ref|XP_006918940.1| PREDICTED: ubiquitin-conjugating enzyme E2 D3 isoform X2 [Pteropus alecto] >gi|586528035|ref|XP_006918941.1| PREDICTED: ubiquitin-conjugating enzyme E2 D3 isoform X3 [Pteropus alecto] >gi|589914131|ref|XP_006970404.1| PREDICTED: ubiquitin-conjugating enzyme E2 D3 isoform X4 [Peromyscus maniculatus bairdii] >gi|591308781|ref|XP_007081013.1| PREDICTED: ubiquitin-conjugating enzyme E2 D3 isoform X3 [Panthera tigris altaica] >gi|593762266|ref|XP_007119786.1| PREDICTED: ubiquitin-conjugating enzyme E2 D3 isoform X1 [Physeter catodon] >gi|593762268|ref|XP_007119787.1| PREDICTED: ubiquitin-conjugating enzyme E2 D3 isoform X2 [Physeter catodon] >gi|593762270|ref|XP_007119788.1| PREDICTED: ubiquitin-conjugating enzyme E2 D3 isoform X3 [Physeter catodon] >gi|593762272|ref|XP_007119789.1| PREDICTED: ubiquitin-conjugating enzyme E2 D3 isoform X4 [Physeter catodon] >gi|594045834|ref|XP_006047383.1| PREDICTED: ubiquitin-conjugating enzyme E2 D3 isoform X5 [Bubalus bubalis] >gi|594639427|ref|XP_007172988.1| PREDICTED: ubiquitin-conjugating enzyme E2 D3 isoform X6 [Balaenoptera acutorostrata scammoni] >gi|602646864|ref|XP_007429863.1| PREDICTED: ubiquitin-conjugating enzyme E2 D3 isoform X2 [Python bivittatus] >gi|602707205|ref|XP_007463878.1| PREDICTED: ubiquitin-conjugating enzyme E2 D3 isoform X1 [Lipotes vexillifer] >gi|602707207|ref|XP_007463879.1| PREDICTED: ubiquitin-conjugating enzyme E2 D3 isoform X2 [Lipotes vexillifer] >gi|612029799|ref|XP_007495931.1| PREDICTED: ubiquitin-conjugating enzyme E2 D3 isoform X4 [Monodelphis domestica] >gi|625241558|ref|XP_007612006.1| PREDICTED: ubiquitin-conjugating enzyme E2 D3 [Cricetulus griseus] >gi|634883956|ref|XP_007951836.1| PREDICTED: ubiquitin-conjugating enzyme E2 D3 isoform X2 [Orycteropus afer afer] >gi|634883960|ref|XP_007951837.1| PREDICTED: ubiquitin-conjugating enzyme E2 D3 isoform X2 [Orycteropus afer afer] >gi|635044050|ref|XP_007997609.1| PREDICTED: ubiquitin-conjugating enzyme E2 D3 isoform X1 [Chlorocebus sabaeus] >gi|635044052|ref|XP_007997610.1| PREDICTED: ubiquitin-conjugating enzyme E2 D3 isoform X1 [Chlorocebus sabaeus] >gi|635044054|ref|XP_007997612.1| PREDICTED: ubiquitin-conjugating enzyme E2 D3 isoform X1 [Chlorocebus sabaeus] >gi|635044056|ref|XP_007997613.1| PREDICTED: ubiquitin-conjugating enzyme E2 D3 isoform X1 [Chlorocebus sabaeus] >gi|635044058|ref|XP_007997614.1| PREDICTED: ubiquitin-conjugating enzyme E2 D3 isoform X1 [Chlorocebus sabaeus] >gi|640791573|ref|XP_008051691.1| PREDICTED: ubiquitin-conjugating enzyme E2 D3 [Tarsius syrichta] >gi|640791575|ref|XP_008051692.1| PREDICTED: ubiquitin-conjugating enzyme E2 D3 [Tarsius syrichta] >gi|640791577|ref|XP_008051693.1| PREDICTED: ubiquitin-conjugating enzyme E2 D3 [Tarsius syrichta] >gi|640791579|ref|XP_008051694.1| PREDICTED: ubiquitin-conjugating enzyme E2 D3 [Tarsius syrichta] >gi|640791581|ref|XP_008051695.1| PREDICTED: ubiquitin-conjugating enzyme E2 D3 [Tarsius syrichta] >gi|640791583|ref|XP_008051696.1| PREDICTED: ubiquitin-conjugating enzyme E2 D3 [Tarsius syrichta] >gi|640791585|ref|XP_008051697.1| PREDICTED: ubiquitin-conjugating enzyme E2 D3 [Tarsius syrichta] >gi|640791587|ref|XP_008051699.1| PREDICTED: ubiquitin-conjugating enzyme E2 D3 [Tarsius syrichta] >gi|641729348|ref|XP_008154861.1| PREDICTED: ubiquitin-conjugating enzyme E2 D3 isoform X2 [Eptesicus fuscus] >gi|641729350|ref|XP_008154862.1| PREDICTED: ubiquitin-conjugating enzyme E2 D3 isoform X2 [Eptesicus fuscus] >gi|641729352|ref|XP_008154864.1| PREDICTED: ubiquitin-conjugating enzyme E2 D3 isoform X2 [Eptesicus fuscus] >gi|667244894|ref|XP_008579069.1| PREDICTED: ubiquitin-conjugating enzyme E2 D3 isoform X1 [Galeopterus variegatus] >gi|667244897|ref|XP_008579074.1| PREDICTED: ubiquitin-conjugating enzyme E2 D3 isoform X1 [Galeopterus variegatus] >gi|667244900|ref|XP_008579080.1| PREDICTED: ubiquitin-conjugating enzyme E2 D3 isoform X1 [Galeopterus variegatus] >gi|667244903|ref|XP_008579084.1| PREDICTED: ubiquitin-conjugating enzyme E2 D3 isoform X1 [Galeopterus variegatus] >gi|667244906|ref|XP_008579091.1| PREDICTED: ubiquitin-conjugating enzyme E2 D3 isoform X1 [Galeopterus variegatus] >gi|671029315|ref|XP_008705438.1| PREDICTED: ubiquitin-conjugating enzyme E2 D3 [Ursus maritimus] >gi|671029317|ref|XP_008705439.1| PREDICTED: ubiquitin-conjugating enzyme E2 D3 [Ursus maritimus] >gi|671029319|ref|XP_008705440.1| PREDICTED: ubiquitin-conjugating enzyme E2 D3 [Ursus maritimus] >gi|671029321|ref|XP_008705441.1| PREDICTED: ubiquitin-conjugating enzyme E2 D3 [Ursus maritimus] >gi|675648381|ref|XP_008991162.1| PREDICTED: ubiquitin-conjugating enzyme E2 D3 isoform X2 [Callithrix jacchus] >gi|675793661|ref|XP_008953584.1| PREDICTED: ubiquitin-conjugating enzyme E2 D3 [Pan paniscus] >gi|675793664|ref|XP_008953585.1| PREDICTED: ubiquitin-conjugating enzyme E2 D3 [Pan paniscus] >gi|685542330|ref|XP_009205541.1| PREDICTED: ubiquitin-conjugating enzyme E2 D3 isoform X5 [Papio anubis] >gi|686716673|ref|XP_009238501.1| PREDICTED: ubiquitin-conjugating enzyme E2 D3 isoform X1 [Pongo abelii] >gi|694908336|ref|XP_009446351.1| PREDICTED: ubiquitin-conjugating enzyme E2 D3 [Pan troglodytes] >gi|724823299|ref|XP_010361628.1| PREDICTED: ubiquitin-conjugating enzyme E2 D3 isoform X2 [Rhinopithecus roxellana] >gi|724823302|ref|XP_010361629.1| PREDICTED: ubiquitin-conjugating enzyme E2 D3 isoform X2 [Rhinopithecus roxellana] >gi|724823305|ref|XP_010361630.1| PREDICTED: ubiquitin-conjugating enzyme E2 D3 isoform X2 [Rhinopithecus roxellana] >gi|731476099|ref|XP_010588779.1| PREDICTED: ubiquitin-conjugating enzyme E2 D3 [Loxodonta africana] >gi|743716500|ref|XP_010951900.1| PREDICTED: ubiquitin-conjugating enzyme E2 D3 isoform X2 [Camelus bactrianus] >gi|743716502|ref|XP_010951901.1| PREDICTED: ubiquitin-conjugating enzyme E2 D3 isoform X2 [Camelus bactrianus] >gi|744566169|ref|XP_010978946.1| PREDICTED: ubiquitin-conjugating enzyme E2 D3 isoform X2 [Camelus dromedarius] >gi|744566172|ref|XP_010978947.1| PREDICTED: ubiquitin-conjugating enzyme E2 D3 isoform X2 [Camelus dromedarius] >gi|759123879|ref|XP_011359807.1| PREDICTED: ubiquitin-conjugating enzyme E2 D3 [Pteropus vampyrus] >gi|759123882|ref|XP_011359808.1| PREDICTED: ubiquitin-conjugating enzyme E2 D3 [Pteropus vampyrus] >gi|759123885|ref|XP_011359809.1| PREDICTED: ubiquitin-conjugating enzyme E2 D3 [Pteropus vampyrus] >gi|759123888|ref|XP_011359810.1| PREDICTED: ubiquitin-conjugating enzyme E2 D3 [Pteropus vampyrus] >gi|759123891|ref|XP_011359811.1| PREDICTED: ubiquitin-conjugating enzyme E2 D3 [Pteropus vampyrus] >gi|767932586|ref|XP_011530529.1| PREDICTED: ubiquitin-conjugating enzyme E2 D3 isoform X1 [Homo sapiens] >gi|795170541|ref|XP_011798612.1| PREDICTED: ubiquitin-conjugating enzyme E2 D3 isoform X3 [Colobus angolensis palliatus] >gi|795170546|ref|XP_011798615.1| PREDICTED: ubiquitin-conjugating enzyme E2 D3 isoform X3 [Colobus angolensis palliatus] >gi|795170551|ref|XP_011798616.1| PREDICTED: ubiquitin-conjugating enzyme E2 D3 isoform X3 [Colobus angolensis palliatus] >gi|795170556|ref|XP_011798617.1| PREDICTED: ubiquitin-conjugating enzyme E2 D3 isoform X3 [Colobus angolensis palliatus] >gi|795170561|ref|XP_011798618.1| PREDICTED: ubiquitin-conjugating enzyme E2 D3 isoform X3 [Colobus angolensis palliatus] >gi|795170566|ref|XP_011798619.1| PREDICTED: ubiquitin-conjugating enzyme E2 D3 isoform X3 [Colobus angolensis palliatus] >gi|795170572|ref|XP_011798620.1| PREDICTED: ubiquitin-conjugating enzyme E2 D3 isoform X3 [Colobus angolensis palliatus] >gi|795170577|ref|XP_011798621.1| PREDICTED: ubiquitin-conjugating enzyme E2 D3 isoform X3 [Colobus angolensis palliatus] >gi|795198359|ref|XP_011847653.1| PREDICTED: ubiquitin-conjugating enzyme E2 D3 isoform X3 [Mandrillus leucophaeus] >gi|795198366|ref|XP_011847655.1| PREDICTED: ubiquitin-conjugating enzyme E2 D3 isoform X3 [Mandrillus leucophaeus] >gi|795198375|ref|XP_011847656.1| PREDICTED: ubiquitin-conjugating enzyme E2 D3 isoform X3 [Mandrillus leucophaeus] >gi|795198380|ref|XP_011847657.1| PREDICTED: ubiquitin-conjugating enzyme E2 D3 isoform X3 [Mandrillus leucophaeus] >gi|795198387|ref|XP_011847658.1| PREDICTED: ubiquitin-conjugating enzyme E2 D3 isoform X3 [Mandrillus leucophaeus] >gi|795198395|ref|XP_011847659.1| PREDICTED: ubiquitin-conjugating enzyme E2 D3 isoform X3 [Mandrillus leucophaeus] >gi|795198404|ref|XP_011847660.1| PREDICTED: ubiquitin-conjugating enzyme E2 D3 isoform X3 [Mandrillus leucophaeus] >gi|795198411|ref|XP_011847661.1| PREDICTED: ubiquitin-conjugating enzyme E2 D3 isoform X3 [Mandrillus leucophaeus] >gi|795198419|ref|XP_011847662.1| PREDICTED: ubiquitin-conjugating enzyme E2 D3 isoform X3 [Mandrillus leucophaeus] >gi|795198426|ref|XP_011847663.1| PREDICTED: ubiquitin-conjugating enzyme E2 D3 isoform X3 [Mandrillus leucophaeus] >gi|795359830|ref|XP_011747471.1| PREDICTED: ubiquitin-conjugating enzyme E2 D3 isoform X2 [Macaca nemestrina] >gi|795359836|ref|XP_011747473.1| PREDICTED: ubiquitin-conjugating enzyme E2 D3 isoform X2 [Macaca nemestrina] >gi|795359841|ref|XP_011747474.1| PREDICTED: ubiquitin-conjugating enzyme E2 D3 isoform X2 [Macaca nemestrina] >gi|795359846|ref|XP_011747475.1| PREDICTED: ubiquitin-conjugating enzyme E2 D3 isoform X2 [Macaca nemestrina] >gi|795359851|ref|XP_011747476.1| PREDICTED: ubiquitin-conjugating enzyme E2 D3 isoform X2 [Macaca nemestrina] >gi|795359856|ref|XP_011747477.1| PREDICTED: ubiquitin-conjugating enzyme E2 D3 isoform X2 [Macaca nemestrina] >gi|795436417|ref|XP_011884278.1| PREDICTED: ubiquitin-conjugating enzyme E2 D3 isoform X3 [Cercocebus atys] >gi|795436421|ref|XP_011884279.1| PREDICTED: ubiquitin-conjugating enzyme E2 D3 isoform X3 [Cercocebus atys] >gi|795436427|ref|XP_011884280.1| PREDICTED: ubiquitin-conjugating enzyme E2 D3 isoform X3 [Cercocebus atys] >gi|803104401|ref|XP_012038967.1| PREDICTED: ubiquitin-conjugating enzyme E2 D3 [Ovis aries] >gi|803305235|ref|XP_012011066.1| PREDICTED: ubiquitin-conjugating enzyme E2 D3 [Ovis aries musimon] >gi|803312771|ref|XP_012014707.1| PREDICTED: ubiquitin-conjugating enzyme E2 D3 isoform X2 [Ovis aries musimon] >gi|803312773|ref|XP_012014708.1| PREDICTED: ubiquitin-conjugating enzyme E2 D3 isoform X2 [Ovis aries musimon] >gi|803312775|ref|XP_012014709.1| PREDICTED: ubiquitin-conjugating enzyme E2 D3 isoform X2 [Ovis aries musimon] >gi|817329779|ref|XP_012291900.1| PREDICTED: ubiquitin-conjugating enzyme E2 D3 isoform X2 [Aotus nancymaae] >gi|817329781|ref|XP_012291901.1| PREDICTED: ubiquitin-conjugating enzyme E2 D3 isoform X2 [Aotus nancymaae] >gi|817329783|ref|XP_012291902.1| PREDICTED: ubiquitin-conjugating enzyme E2 D3 isoform X2 [Aotus nancymaae] >gi|817329785|ref|XP_012291903.1| PREDICTED: ubiquitin-conjugating enzyme E2 D3 isoform X2 [Aotus nancymaae] >gi|820999756|ref|XP_012354856.1| PREDICTED: ubiquitin-conjugating enzyme E2 D3 isoform X4 [Nomascus leucogenys] >gi|820999758|ref|XP_012354857.1| PREDICTED: ubiquitin-conjugating enzyme E2 D3 isoform X4 [Nomascus leucogenys] >gi|820999762|ref|XP_012354858.1| PREDICTED: ubiquitin-conjugating enzyme E2 D3 isoform X4 [Nomascus leucogenys] >gi|821383208|ref|XP_012391523.1| PREDICTED: ubiquitin-conjugating enzyme E2 D3 [Orcinus orca] >gi|821383210|ref|XP_012391529.1| PREDICTED: ubiquitin-conjugating enzyme E2 D3 [Orcinus orca] >gi|823459874|ref|XP_012428898.1| PREDICTED: ubiquitin-conjugating enzyme E2 D3 [Taeniopygia guttata] >gi|826325072|ref|XP_012510828.1| PREDICTED: ubiquitin-conjugating enzyme E2 D3 [Propithecus coquereli] >gi|826325075|ref|XP_012510829.1| PREDICTED: ubiquitin-conjugating enzyme E2 D3 [Propithecus coquereli] >gi|829788674|ref|XP_012624660.1| PREDICTED: ubiquitin-conjugating enzyme E2 D3 [Microcebus murinus] >gi|829797569|ref|XP_012626409.1| PREDICTED: ubiquitin-conjugating enzyme E2 D3 isoform X2 [Microcebus murinus] >gi|829797574|ref|XP_012626410.1| PREDICTED: ubiquitin-conjugating enzyme E2 D3 isoform X2 [Microcebus murinus] >gi|829797579|ref|XP_012626411.1| PREDICTED: ubiquitin-conjugating enzyme E2 D3 isoform X2 [Microcebus murinus] >gi|831236923|ref|XP_012664740.1| PREDICTED: ubiquitin-conjugating enzyme E2 D3 [Otolemur garnettii] >gi|837826570|ref|XP_012785017.1| PREDICTED: ubiquitin-conjugating enzyme E2 D3 isoform X2 [Ochotona princeps] >gi|852771128|ref|XP_012879235.1| PREDICTED: ubiquitin-conjugating enzyme E2 D3 [Dipodomys ordii] >gi|852771132|ref|XP_012879236.1| PREDICTED: ubiquitin-conjugating enzyme E2 D3 [Dipodomys ordii] >gi|852771135|ref|XP_012879237.1| PREDICTED: ubiquitin-conjugating enzyme E2 D3 [Dipodomys ordii] >gi|852771138|ref|XP_012879238.1| PREDICTED: ubiquitin-conjugating enzyme E2 D3 [Dipodomys ordii] >gi|852771141|ref|XP_012879239.1| PREDICTED: ubiquitin-conjugating enzyme E2 D3 [Dipodomys ordii] >gi|880946044|ref|XP_012977378.1| PREDICTED: ubiquitin-conjugating enzyme E2 D3 [Mesocricetus auratus] >gi|880946051|ref|XP_012977379.1| PREDICTED: ubiquitin-conjugating enzyme E2 D3 [Mesocricetus auratus] >gi|880946055|ref|XP_012977380.1| PREDICTED: ubiquitin-conjugating enzyme E2 D3 [Mesocricetus auratus] >gi|913502365|ref|XP_013205479.1| PREDICTED: ubiquitin-conjugating enzyme E2 D3 [Microtus ochrogaster] >gi|913502367|ref|XP_013205480.1| PREDICTED: ubiquitin-conjugating enzyme E2 D3 [Microtus ochrogaster] >gi|913502369|ref|XP_013205481.1| PREDICTED: ubiquitin-conjugating enzyme E2 D3 [Microtus ochrogaster] >gi|914908501|ref|XP_013214298.1| PREDICTED: ubiquitin-conjugating enzyme E2 D3 [Ictidomys tridecemlineatus] >gi|931570166|ref|XP_014200187.1| PREDICTED: ubiquitin-conjugating enzyme E2 D3 [Pan paniscus] >gi|931570168|ref|XP_014200188.1| PREDICTED: ubiquitin-conjugating enzyme E2 D3 [Pan paniscus] >gi|46577315|sp|P61079.1|UB2D3_MOUSE RecName: Full=Ubiquitin-conjugating enzyme E2 D3; AltName: Full=Ubiquitin carrier protein D3; AltName: Full=Ubiquitin-conjugating enzyme E2(17)KB 3; AltName: Full=Ubiquitin-conjugating enzyme E2-17 kDa 3; AltName: Full=Ubiquitin-protein ligase D3 >gi|46577653|sp|P61078.1|UB2D3_RAT RecName: Full=Ubiquitin-conjugating enzyme E2 D3; AltName: Full=Phosphoarginine phosphatase; Short=PAPase; AltName: Full=Ubiquitin carrier protein D3; AltName: Full=Ubiquitin-conjugating enzyme E2(17)KB 3; AltName: Full=Ubiquitin-conjugating enzyme E2-17 kDa 3; AltName: Full=Ubiquitin-protein ligase D3 >gi|46577654|sp|P61077.1|UB2D3_HUMAN RecName: Full=Ubiquitin-conjugating enzyme E2 D3; AltName: Full=Ubiquitin carrier protein D3; AltName: Full=Ubiquitin-conjugating enzyme E2(17)KB 3; AltName: Full=Ubiquitin-conjugating enzyme E2-17 kDa 3; AltName: Full=Ubiquitin-protein ligase D3 >gi|75061618|sp|Q5R4V7.1|UB2D3_PONAB RecName: Full=Ubiquitin-conjugating enzyme E2 D3; AltName: Full=Ubiquitin carrier protein D3; AltName: Full=Ubiquitin-protein ligase D3 >gi|75076094|sp|Q4R5N4.1|UB2D3_MACFA RecName: Full=Ubiquitin-conjugating enzyme E2 D3; AltName: Full=Ubiquitin carrier protein D3; AltName: Full=Ubiquitin-protein ligase D3 [Macaca fascicularis] >gi|595666|gb|AAA85100.1| ubiquitin conjugating enzyme [Rattus norvegicus] >gi|595670|gb|AAA85102.1| ubiquitin conjugating enzyme [Rattus norvegicus] >gi|1145691|gb|AAA91461.1| UbcH5C [Homo sapiens] >gi|6474928|dbj|BAA87330.1| phosphoarginine phosphatase [Rattus norvegicus] >gi|7012908|gb|AAF35234.1| ubiquitin-conjugating enzyme E2D 3 [Homo sapiens] >gi|12834999|dbj|BAB23116.1| unnamed protein product [Mus musculus] >gi|13097282|gb|AAH03395.1| Ubiquitin-conjugating enzyme E2D 3 (UBC4/5 homolog, yeast) [Homo sapiens] >gi|23138797|gb|AAH37894.1| Ubiquitin-conjugating enzyme E2D 3 (UBC4/5 homolog, yeast) [Homo sapiens] >gi|26328663|dbj|BAC28070.1| unnamed protein product [Mus musculus] >gi|26340638|dbj|BAC33981.1| unnamed protein product [Mus musculus] >gi|26346583|dbj|BAC36940.1| unnamed protein product [Mus musculus] >gi|26353454|dbj|BAC40357.1| unnamed protein product [Mus musculus] >gi|34786038|gb|AAH57941.1| Ubiquitin-conjugating enzyme E2D 3 (UBC4/5 homolog, yeast) [Mus musculus] >gi|49117339|gb|AAH72696.1| Ube2d3 protein [Rattus norvegicus] >gi|53130410|emb|CAG31534.1| hypothetical protein RCJMB04_7i20 [Gallus gallus] >gi|55733048|emb|CAH93209.1| hypothetical protein [Pongo abelii] >gi|67514224|gb|AAH98220.1| Ubiquitin-conjugating enzyme E2D 3 (UBC4/5 homolog, yeast) [Mus musculus] >gi|67970497|dbj|BAE01591.1| unnamed protein product [Macaca fascicularis] >gi|74139637|dbj|BAE40955.1| unnamed protein product [Mus musculus] >gi|74139744|dbj|BAE31721.1| unnamed protein product [Mus musculus] >gi|74139762|dbj|BAE31728.1| unnamed protein product [Mus musculus] >gi|74186770|dbj|BAE34839.1| unnamed protein product [Mus musculus] >gi|74188930|dbj|BAE39237.1| unnamed protein product [Mus musculus] >gi|74189037|dbj|BAE39283.1| unnamed protein product [Mus musculus] >gi|74191396|dbj|BAE30279.1| unnamed protein product [Mus musculus] >gi|74195952|dbj|BAE30534.1| unnamed protein product [Mus musculus] >gi|74197978|dbj|BAE35172.1| unnamed protein product [Mus musculus] >gi|74198435|dbj|BAE39701.1| unnamed protein product [Mus musculus] >gi|74198714|dbj|BAE39829.1| unnamed protein product [Mus musculus] >gi|74213404|dbj|BAE35518.1| unnamed protein product [Mus musculus] >gi|74220234|dbj|BAE31296.1| unnamed protein product [Mus musculus] >gi|74222365|dbj|BAE38093.1| unnamed protein product [Mus musculus] >gi|119626543|gb|EAX06138.1| ubiquitin-conjugating enzyme E2D 3 (UBC4/5 homolog, yeast), isoform CRA_a [Homo sapiens] >gi|119626544|gb|EAX06139.1| ubiquitin-conjugating enzyme E2D 3 (UBC4/5 homolog, yeast), isoform CRA_a [Homo sapiens] >gi|119626546|gb|EAX06141.1| ubiquitin-conjugating enzyme E2D 3 (UBC4/5 homolog, yeast), isoform CRA_a [Homo sapiens] >gi|119626547|gb|EAX06142.1| ubiquitin-conjugating enzyme E2D 3 (UBC4/5 homolog, yeast), isoform CRA_a [Homo sapiens] >gi|119626549|gb|EAX06144.1| ubiquitin-conjugating enzyme E2D 3 (UBC4/5 homolog, yeast), isoform CRA_a [Homo sapiens] >gi|119626550|gb|EAX06145.1| ubiquitin-conjugating enzyme E2D 3 (UBC4/5 homolog, yeast), isoform CRA_a [Homo sapiens] >gi|148680202|gb|EDL12149.1| mCG22362, isoform CRA_a [Mus musculus] >gi|148680203|gb|EDL12150.1| mCG22362, isoform CRA_a [Mus musculus] >gi|148680204|gb|EDL12151.1| mCG22362, isoform CRA_a [Mus musculus] >gi|148680205|gb|EDL12152.1| mCG22362, isoform CRA_a [Mus musculus] >gi|148680206|gb|EDL12153.1| mCG22362, isoform CRA_a [Mus musculus] >gi|149026018|gb|EDL82261.1| ubiquitin-conjugating enzyme E2D 3 (UBC4/5 homolog, yeast), isoform CRA_a [Rattus norvegicus] >gi|149026020|gb|EDL82263.1| ubiquitin-conjugating enzyme E2D 3 (UBC4/5 homolog, yeast), isoform CRA_a [Rattus norvegicus] >gi|149026021|gb|EDL82264.1| ubiquitin-conjugating enzyme E2D 3 (UBC4/5 homolog, yeast), isoform CRA_a [Rattus norvegicus] >gi|149026022|gb|EDL82265.1| ubiquitin-conjugating enzyme E2D 3 (UBC4/5 homolog, yeast), isoform CRA_a [Rattus norvegicus] >gi|149026023|gb|EDL82266.1| ubiquitin-conjugating enzyme E2D 3 (UBC4/5 homolog, yeast), isoform CRA_a [Rattus norvegicus] >gi|261861688|dbj|BAI47366.1| ubiquitin-conjugating enzyme E2D 3 [synthetic construct] >gi|344243327|gb|EGV99430.1| Ubiquitin-conjugating enzyme E2 D3 [Cricetulus griseus]'
p338
sg22
S'gi|4507777|ref|NP_003331.1|'
p339
sg24
S'XX00000035'
p340
sbag0
(g8
g2
Ntp341
Rp342
(dp343
g12
S'1.63874e-102'
p344
sg14
g15
sg16
S'NP_956246'
p345
sg18
S'147'
p346
sg20
S'ubiquitin-conjugating enzyme E2 D3 [Danio rerio] >gi|597763462|ref|XP_007245672.1| PREDICTED: ubiquitin-conjugating enzyme E2 D2-like isoform X3 [Astyanax mexicanus] >gi|37589809|gb|AAH59548.1| Ubiquitin-conjugating enzyme E2D 2 (UBC4/5 homolog, yeast) [Danio rerio] >gi|157423599|gb|AAI53622.1| Ubiquitin-conjugating enzyme E2D 2 (UBC4/5 homolog, yeast) [Danio rerio]'
p347
sg22
S'gi|41152398|ref|NP_956246.1|'
p348
sg24
S'XX00000036'
p349
sbag0
(g8
g2
Ntp350
Rp351
(dp352
g12
S'1.67639e-102'
p353
sg14
g15
sg16
S'XP_010901795'
p354
sg18
S'148'
p355
sg20
S'PREDICTED: ubiquitin-conjugating enzyme E2 D2 isoform X1 [Esox lucius]'
p356
sg22
S'gi|742093727|ref|XP_010901795.1|'
p357
sg24
S'XX00000037'
p358
sbag0
(g8
g2
Ntp359
Rp360
(dp361
g12
S'1.80964e-102'
p362
sg14
g15
sg16
S'XP_014067667'
p363
sg18
S'148'
p364
sg20
S'PREDICTED: ubiquitin-conjugating enzyme E2 D2-like isoform X1 [Salmo salar]'
p365
sg22
S'gi|929112623|ref|XP_014067667.1|'
p366
sg24
S'XX00000038'
p367
sbag0
(g8
g2
Ntp368
Rp369
(dp370
g12
S'1.8248e-102'
p371
sg14
g15
sg16
S'3L1Z_A'
p372
sg18
S'157'
p373
sg20
S'Chain A, Crystal Structure Of The U-Box Domain Of Human E4b Ubiquitin Ligase In Complex With Ubch5c E2 Ubiquitin Conjugating Enzyme'
p374
sg22
S'gi|295789408|pdb|3L1Z|A'
p375
sg24
S'XX00000039'
p376
sbag0
(g8
g2
Ntp377
Rp378
(dp379
g12
S'1.90963e-102'
p380
sg14
g15
sg16
S'4AUQ_A'
p381
sg18
S'147'
p382
sg20
S'Chain A, Structure Of Birc7-Ubch5b-Ub Complex. >gi|400977357|pdb|4AUQ|D Chain D, Structure Of Birc7-Ubch5b-Ub Complex.'
p383
sg22
S'gi|400977354|pdb|4AUQ|A'
p384
sg24
S'XX00000040'
p385
sbag0
(g8
g2
Ntp386
Rp387
(dp388
g12
S'2.85047e-102'
p389
sg14
g15
sg16
S'1X23_A'
p390
sg18
S'155'
p391
sg20
S'Chain A, Crystal Structure Of Ubch5c >gi|66360406|pdb|1X23|B Chain B, Crystal Structure Of Ubch5c >gi|66360407|pdb|1X23|C Chain C, Crystal Structure Of Ubch5c >gi|66360408|pdb|1X23|D Chain D, Crystal Structure Of Ubch5c'
p392
sg22
S'gi|66360405|pdb|1X23|A'
p393
sg24
S'XX00000041'
p394
sbag0
(g8
g2
Ntp395
Rp396
(dp397
g12
S'3.3006e-102'
p398
sg14
g15
sg16
S'XP_010877648'
p399
sg18
S'148'
p400
sg20
S'PREDICTED: ubiquitin-conjugating enzyme E2 D2-like isoform X1 [Esox lucius]'
p401
sg22
S'gi|742136138|ref|XP_010877648.1|'
p402
sg24
S'XX00000042'
p403
sbag0
(g8
g2
Ntp404
Rp405
(dp406
g12
S'3.33403e-102'
p407
sg14
g15
sg16
S'AIC55285'
p408
sg18
S'147'
p409
sg20
S'UBE2D3, partial [synthetic construct]'
p410
sg22
S'gi|649121725|gb|AIC55285.1|'
p411
sg24
S'XX00000043'
p412
sbag0
(g8
g2
Ntp413
Rp414
(dp415
g12
S'3.37066e-102'
p416
sg14
g15
sg16
S'AAH66917'
p417
sg18
S'147'
p418
sg20
S'Ubiquitin-conjugating enzyme E2D 3 (UBC4/5 homolog, yeast) [Homo sapiens]'
p419
sg22
S'gi|44890748|gb|AAH66917.1|'
p420
sg24
S'XX00000044'
p421
sbag0
(g8
g2
Ntp422
Rp423
(dp424
g12
S'3.44227e-102'
p425
sg14
g15
sg16
S'3ZNI_C'
p426
sg18
S'146'
p427
sg20
S'Chain C, Structure Of Phosphotyr363-cbl-b - Ubch5b-ub - Zap-70 Peptide Complex >gi|523309508|pdb|3ZNI|G Chain G, Structure Of Phosphotyr363-cbl-b - Ubch5b-ub - Zap-70 Peptide Complex >gi|523309509|pdb|3ZNI|K Chain K, Structure Of Phosphotyr363-cbl-b - Ubch5b-ub - Zap-70 Peptide Complex >gi|523309510|pdb|3ZNI|O Chain O, Structure Of Phosphotyr363-cbl-b - Ubch5b-ub - Zap-70 Peptide Complex >gi|806394275|pdb|4V3K|A Chain A, Rnf38-ubch5b-ub Complex >gi|806394276|pdb|4V3K|D Chain D, Rnf38-ubch5b-ub Complex'
p428
sg22
S'gi|523309507|pdb|3ZNI|C'
p429
sg24
S'XX00000045'
p430
sbag0
(g8
g2
Ntp431
Rp432
(dp433
g12
S'3.52125e-102'
p434
sg14
g15
sg16
S'ADO27985'
p435
sg18
S'147'
p436
sg20
S'ubiquitin-conjugating enzyme e2 d2 [Ictalurus furcatus]'
p437
sg22
S'gi|308321668|gb|ADO27985.1|'
p438
sg24
S'XX00000046'
p439
sbag0
(g8
g2
Ntp440
Rp441
(dp442
g12
S'3.56296e-102'
p443
sg14
g15
sg16
S'NP_871621'
p444
sg18
S'148'
p445
sg20
S'ubiquitin-conjugating enzyme E2 D3 isoform 2 [Homo sapiens] >gi|441625544|ref|XP_004089088.1| PREDICTED: ubiquitin-conjugating enzyme E2 D3 isoform X3 [Nomascus leucogenys] >gi|471391365|ref|XP_004380248.1| PREDICTED: ubiquitin-conjugating enzyme E2 D3 isoform X1 [Trichechus manatus latirostris] >gi|472364707|ref|XP_004401915.1| PREDICTED: ubiquitin-conjugating enzyme E2 D3 isoform X2 [Odobenus rosmarus divergens] >gi|504169475|ref|XP_004594344.1| PREDICTED: ubiquitin-conjugating enzyme E2 D3 isoform X1 [Ochotona princeps] >gi|530378116|ref|XP_005263257.1| PREDICTED: ubiquitin-conjugating enzyme E2 D3 isoform X2 [Homo sapiens] >gi|530588403|ref|XP_005287917.1| PREDICTED: ubiquitin-conjugating enzyme E2 D3 isoform X1 [Chrysemys picta bellii] >gi|545846550|ref|XP_005656607.1| PREDICTED: ubiquitin-conjugating enzyme E2 D3 isoform X1 [Sus scrofa] >gi|555952471|ref|XP_005888421.1| PREDICTED: ubiquitin-conjugating enzyme E2 D3-like [Bos mutus] >gi|558179581|ref|XP_006126956.1| PREDICTED: ubiquitin-conjugating enzyme E2 D3 isoform X1 [Pelodiscus sinensis] >gi|560929028|ref|XP_006190668.1| PREDICTED: ubiquitin-conjugating enzyme E2 D3 [Camelus ferus] >gi|564338872|ref|XP_006233395.1| PREDICTED: ubiquitin-conjugating enzyme E2 D3 isoform X2 [Rattus norvegicus] >gi|564338874|ref|XP_006233396.1| PREDICTED: ubiquitin-conjugating enzyme E2 D3 isoform X2 [Rattus norvegicus] >gi|564338876|ref|XP_006233397.1| PREDICTED: ubiquitin-conjugating enzyme E2 D3 isoform X2 [Rattus norvegicus] >gi|578809333|ref|XP_006714360.1| PREDICTED: ubiquitin-conjugating enzyme E2 D3 isoform X2 [Homo sapiens] >gi|578809338|ref|XP_006714362.1| PREDICTED: ubiquitin-conjugating enzyme E2 D3 isoform X2 [Homo sapiens] >gi|585160821|ref|XP_006732637.1| PREDICTED: ubiquitin-conjugating enzyme E2 D3 isoform X2 [Leptonychotes weddellii] >gi|586484555|ref|XP_006872776.1| PREDICTED: ubiquitin-conjugating enzyme E2 D3 isoform X1 [Chrysochloris asiatica] >gi|586984247|ref|XP_006931000.1| PREDICTED: ubiquitin-conjugating enzyme E2 D3 isoform X1 [Felis catus] >gi|586984249|ref|XP_006931001.1| PREDICTED: ubiquitin-conjugating enzyme E2 D3 isoform X1 [Felis catus] >gi|586984251|ref|XP_006931002.1| PREDICTED: ubiquitin-conjugating enzyme E2 D3 isoform X1 [Felis catus] >gi|589914125|ref|XP_006970401.1| PREDICTED: ubiquitin-conjugating enzyme E2 D3 isoform X1 [Peromyscus maniculatus bairdii] >gi|589914127|ref|XP_006970402.1| PREDICTED: ubiquitin-conjugating enzyme E2 D3 isoform X2 [Peromyscus maniculatus bairdii] >gi|589914129|ref|XP_006970403.1| PREDICTED: ubiquitin-conjugating enzyme E2 D3 isoform X3 [Peromyscus maniculatus bairdii] >gi|591308777|ref|XP_007081011.1| PREDICTED: ubiquitin-conjugating enzyme E2 D3 isoform X1 [Panthera tigris altaica] >gi|591308779|ref|XP_007081012.1| PREDICTED: ubiquitin-conjugating enzyme E2 D3 isoform X2 [Panthera tigris altaica] >gi|594045826|ref|XP_006047379.1| PREDICTED: ubiquitin-conjugating enzyme E2 D3 isoform X1 [Bubalus bubalis] >gi|594045828|ref|XP_006047380.1| PREDICTED: ubiquitin-conjugating enzyme E2 D3 isoform X2 [Bubalus bubalis] >gi|594045830|ref|XP_006047381.1| PREDICTED: ubiquitin-conjugating enzyme E2 D3 isoform X3 [Bubalus bubalis] >gi|594045832|ref|XP_006047382.1| PREDICTED: ubiquitin-conjugating enzyme E2 D3 isoform X4 [Bubalus bubalis] >gi|594639417|ref|XP_007172983.1| PREDICTED: ubiquitin-conjugating enzyme E2 D3 isoform X1 [Balaenoptera acutorostrata scammoni] >gi|594639419|ref|XP_007172984.1| PREDICTED: ubiquitin-conjugating enzyme E2 D3 isoform X2 [Balaenoptera acutorostrata scammoni] >gi|594639421|ref|XP_007172985.1| PREDICTED: ubiquitin-conjugating enzyme E2 D3 isoform X3 [Balaenoptera acutorostrata scammoni] >gi|594639423|ref|XP_007172986.1| PREDICTED: ubiquitin-conjugating enzyme E2 D3 isoform X4 [Balaenoptera acutorostrata scammoni] >gi|594639425|ref|XP_007172987.1| PREDICTED: ubiquitin-conjugating enzyme E2 D3 isoform X5 [Balaenoptera acutorostrata scammoni] >gi|602646862|ref|XP_007429862.1| PREDICTED: ubiquitin-conjugating enzyme E2 D3 isoform X1 [Python bivittatus] >gi|612029793|ref|XP_007495928.1| PREDICTED: ubiquitin-conjugating enzyme E2 D3 isoform X1 [Monodelphis domestica] >gi|612029795|ref|XP_007495929.1| PREDICTED: ubiquitin-conjugating enzyme E2 D3 isoform X2 [Monodelphis domestica] >gi|612029797|ref|XP_007495930.1| PREDICTED: ubiquitin-conjugating enzyme E2 D3 isoform X3 [Monodelphis domestica] >gi|634883953|ref|XP_007951835.1| PREDICTED: ubiquitin-conjugating enzyme E2 D3 isoform X1 [Orycteropus afer afer] >gi|641729346|ref|XP_008154860.1| PREDICTED: ubiquitin-conjugating enzyme E2 D3 isoform X1 [Eptesicus fuscus] >gi|655856984|ref|XP_008265769.1| PREDICTED: ubiquitin-conjugating enzyme E2 D3 isoform X1 [Oryctolagus cuniculus] >gi|655856987|ref|XP_008265770.1| PREDICTED: ubiquitin-conjugating enzyme E2 D3 isoform X1 [Oryctolagus cuniculus] >gi|655856990|ref|XP_008265771.1| PREDICTED: ubiquitin-conjugating enzyme E2 D3 isoform X1 [Oryctolagus cuniculus] >gi|655856992|ref|XP_008265772.1| PREDICTED: ubiquitin-conjugating enzyme E2 D3 isoform X1 [Oryctolagus cuniculus] >gi|655856994|ref|XP_008265773.1| PREDICTED: ubiquitin-conjugating enzyme E2 D3 isoform X1 [Oryctolagus cuniculus] >gi|675648367|ref|XP_008991157.1| PREDICTED: ubiquitin-conjugating enzyme E2 D3 isoform X1 [Callithrix jacchus] >gi|675648369|ref|XP_008991158.1| PREDICTED: ubiquitin-conjugating enzyme E2 D3 isoform X1 [Callithrix jacchus] >gi|675648371|ref|XP_008991159.1| PREDICTED: ubiquitin-conjugating enzyme E2 D3 isoform X1 [Callithrix jacchus] >gi|675648373|ref|XP_008991160.1| PREDICTED: ubiquitin-conjugating enzyme E2 D3 isoform X1 [Callithrix jacchus] >gi|675648375|ref|XP_008991161.1| PREDICTED: ubiquitin-conjugating enzyme E2 D3 isoform X1 [Callithrix jacchus] >gi|685542319|ref|XP_009205536.1| PREDICTED: ubiquitin-conjugating enzyme E2 D3 isoform X4 [Papio anubis] >gi|685542321|ref|XP_009205537.1| PREDICTED: ubiquitin-conjugating enzyme E2 D3 isoform X4 [Papio anubis] >gi|685542323|ref|XP_009205538.1| PREDICTED: ubiquitin-conjugating enzyme E2 D3 isoform X4 [Papio anubis] >gi|685542325|ref|XP_009205539.1| PREDICTED: ubiquitin-conjugating enzyme E2 D3 isoform X4 [Papio anubis] >gi|685542327|ref|XP_009205540.1| PREDICTED: ubiquitin-conjugating enzyme E2 D3 isoform X4 [Papio anubis] >gi|724823290|ref|XP_010361624.1| PREDICTED: ubiquitin-conjugating enzyme E2 D3 isoform X1 [Rhinopithecus roxellana] >gi|724823293|ref|XP_010361625.1| PREDICTED: ubiquitin-conjugating enzyme E2 D3 isoform X1 [Rhinopithecus roxellana] >gi|724823296|ref|XP_010361626.1| PREDICTED: ubiquitin-conjugating enzyme E2 D3 isoform X1 [Rhinopithecus roxellana] >gi|725571838|ref|XP_010338411.1| PREDICTED: ubiquitin-conjugating enzyme E2 D3 isoform X1 [Saimiri boliviensis boliviensis] >gi|725571840|ref|XP_010338412.1| PREDICTED: ubiquitin-conjugating enzyme E2 D3 isoform X1 [Saimiri boliviensis boliviensis] >gi|725571842|ref|XP_010338413.1| PREDICTED: ubiquitin-conjugating enzyme E2 D3 isoform X1 [Saimiri boliviensis boliviensis] >gi|743716490|ref|XP_010951895.1| PREDICTED: ubiquitin-conjugating enzyme E2 D3 isoform X1 [Camelus bactrianus] >gi|743716492|ref|XP_010951896.1| PREDICTED: ubiquitin-conjugating enzyme E2 D3 isoform X1 [Camelus bactrianus] >gi|743716494|ref|XP_010951897.1| PREDICTED: ubiquitin-conjugating enzyme E2 D3 isoform X1 [Camelus bactrianus] >gi|743716496|ref|XP_010951898.1| PREDICTED: ubiquitin-conjugating enzyme E2 D3 isoform X1 [Camelus bactrianus] >gi|743716498|ref|XP_010951899.1| PREDICTED: ubiquitin-conjugating enzyme E2 D3 isoform X1 [Camelus bactrianus] >gi|744566160|ref|XP_010978942.1| PREDICTED: ubiquitin-conjugating enzyme E2 D3 isoform X1 [Camelus dromedarius] >gi|744566163|ref|XP_010978943.1| PREDICTED: ubiquitin-conjugating enzyme E2 D3 isoform X1 [Camelus dromedarius] >gi|744566166|ref|XP_010978945.1| PREDICTED: ubiquitin-conjugating enzyme E2 D3 isoform X1 [Camelus dromedarius] >gi|767932583|ref|XP_011530528.1| PREDICTED: ubiquitin-conjugating enzyme E2 D3 isoform X2 [Homo sapiens] >gi|795170532|ref|XP_011798610.1| PREDICTED: ubiquitin-conjugating enzyme E2 D3 isoform X2 [Colobus angolensis palliatus] >gi|795170537|ref|XP_011798611.1| PREDICTED: ubiquitin-conjugating enzyme E2 D3 isoform X2 [Colobus angolensis palliatus] >gi|795198341|ref|XP_011847651.1| PREDICTED: ubiquitin-conjugating enzyme E2 D3 isoform X2 [Mandrillus leucophaeus] >gi|795198351|ref|XP_011847652.1| PREDICTED: ubiquitin-conjugating enzyme E2 D3 isoform X2 [Mandrillus leucophaeus] >gi|795359795|ref|XP_011747465.1| PREDICTED: ubiquitin-conjugating enzyme E2 D3 isoform X1 [Macaca nemestrina] >gi|795359801|ref|XP_011747466.1| PREDICTED: ubiquitin-conjugating enzyme E2 D3 isoform X1 [Macaca nemestrina] >gi|795359806|ref|XP_011747467.1| PREDICTED: ubiquitin-conjugating enzyme E2 D3 isoform X1 [Macaca nemestrina] >gi|795359812|ref|XP_011747468.1| PREDICTED: ubiquitin-conjugating enzyme E2 D3 isoform X1 [Macaca nemestrina] >gi|795359818|ref|XP_011747469.1| PREDICTED: ubiquitin-conjugating enzyme E2 D3 isoform X1 [Macaca nemestrina] >gi|795359824|ref|XP_011747470.1| PREDICTED: ubiquitin-conjugating enzyme E2 D3 isoform X1 [Macaca nemestrina] >gi|795436403|ref|XP_011884274.1| PREDICTED: ubiquitin-conjugating enzyme E2 D3 isoform X2 [Cercocebus atys] >gi|795436407|ref|XP_011884275.1| PREDICTED: ubiquitin-conjugating enzyme E2 D3 isoform X2 [Cercocebus atys] >gi|795436412|ref|XP_011884277.1| PREDICTED: ubiquitin-conjugating enzyme E2 D3 isoform X2 [Cercocebus atys] >gi|803081778|ref|XP_012034994.1| PREDICTED: ubiquitin-conjugating enzyme E2 D3 isoform X1 [Ovis aries] >gi|803081780|ref|XP_012034995.1| PREDICTED: ubiquitin-conjugating enzyme E2 D3 isoform X1 [Ovis aries] >gi|803312763|ref|XP_012014703.1| PREDICTED: ubiquitin-conjugating enzyme E2 D3 isoform X1 [Ovis aries musimon] >gi|803312765|ref|XP_012014704.1| PREDICTED: ubiquitin-conjugating enzyme E2 D3 isoform X1 [Ovis aries musimon] >gi|803312767|ref|XP_012014705.1| PREDICTED: ubiquitin-conjugating enzyme E2 D3 isoform X1 [Ovis aries musimon] >gi|803312769|ref|XP_012014706.1| PREDICTED: ubiquitin-conjugating enzyme E2 D3 isoform X1 [Ovis aries musimon] >gi|817329771|ref|XP_012291894.1| PREDICTED: ubiquitin-conjugating enzyme E2 D3 isoform X1 [Aotus nancymaae] >gi|817329773|ref|XP_012291895.1| PREDICTED: ubiquitin-conjugating enzyme E2 D3 isoform X1 [Aotus nancymaae] >gi|817329775|ref|XP_012291896.1| PREDICTED: ubiquitin-conjugating enzyme E2 D3 isoform X1 [Aotus nancymaae] >gi|817329777|ref|XP_012291899.1| PREDICTED: ubiquitin-conjugating enzyme E2 D3 isoform X1 [Aotus nancymaae] >gi|821114107|ref|XP_012381131.1| PREDICTED: ubiquitin-conjugating enzyme E2 D3 isoform X1 [Dasypus novemcinctus] >gi|821114109|ref|XP_012381132.1| PREDICTED: ubiquitin-conjugating enzyme E2 D3 isoform X1 [Dasypus novemcinctus] >gi|821114111|ref|XP_012381133.1| PREDICTED: ubiquitin-conjugating enzyme E2 D3 isoform X1 [Dasypus novemcinctus] >gi|829797555|ref|XP_012626405.1| PREDICTED: ubiquitin-conjugating enzyme E2 D3 isoform X1 [Microcebus murinus] >gi|829797560|ref|XP_012626406.1| PREDICTED: ubiquitin-conjugating enzyme E2 D3 isoform X1 [Microcebus murinus] >gi|829797564|ref|XP_012626407.1| PREDICTED: ubiquitin-conjugating enzyme E2 D3 isoform X1 [Microcebus murinus] >gi|927170936|ref|XP_013844838.1| PREDICTED: ubiquitin-conjugating enzyme E2 D3 isoform X1 [Sus scrofa] >gi|927170940|ref|XP_013844840.1| PREDICTED: ubiquitin-conjugating enzyme E2 D3 isoform X1 [Sus scrofa] >gi|927170944|ref|XP_013844841.1| PREDICTED: ubiquitin-conjugating enzyme E2 D3 isoform X1 [Sus scrofa] >gi|927170948|ref|XP_013844842.1| PREDICTED: ubiquitin-conjugating enzyme E2 D3 isoform X1 [Sus scrofa] >gi|929412445|ref|XP_014117343.1| PREDICTED: ubiquitin-conjugating enzyme E2 D3 isoform X1 [Pseudopodoces humilis] >gi|21755161|dbj|BAC04632.1| unnamed protein product [Homo sapiens] >gi|149026019|gb|EDL82262.1| ubiquitin-conjugating enzyme E2D 3 (UBC4/5 homolog, yeast), isoform CRA_b [Rattus norvegicus]'
p446
sg22
S'gi|33149322|ref|NP_871621.1|'
p447
sg24
S'XX00000047'
p448
sbag0
(g8
g2
Ntp449
Rp450
(dp451
g12
S'4.19396e-102'
p452
sg14
g15
sg16
S'NP_001117973'
p453
sg18
S'147'
p454
sg20
S'ubiquitin-conjugating enzyme E2D 2 isoform 1 [Oncorhynchus mykiss] >gi|51472295|gb|AAU04541.1| ubiquitin-conjugating enzyme E2D 2 isoform 1 [Oncorhynchus mykiss]'
p455
sg22
S'gi|185136119|ref|NP_001117973.1|'
p456
sg24
S'XX00000048'
p457
sbag0
(g8
g2
Ntp458
Rp459
(dp460
g12
S'4.38134e-102'
p461
sg14
g15
sg16
S'XP_010846576'
p462
sg18
S'147'
p463
sg20
S'PREDICTED: ubiquitin-conjugating enzyme E2 D3 [Bison bison bison] >gi|742217484|ref|XP_010861903.1| PREDICTED: ubiquitin-conjugating enzyme E2 D3 [Bison bison bison]'
p464
sg22
S'gi|742158550|ref|XP_010846576.1|'
p465
sg24
S'XX00000049'
p466
sbasb.