ccopy_reg
_reconstructor
p0
(cphylogenetics.homologs
HomologSet
p1
c__builtin__
object
p2
Ntp3
Rp4
(dp5
S'_homologs'
p6
(lp7
g0
(cphylogenetics.homologs
Homolog
p8
g2
Ntp9
Rp10
(dp11
S'sequence'
p12
S'GAMALKRIHKELNDLARDPPAQCSAGPVGDDMFHWQATIMGPNDSPYQGGVFFLTIHFPTDYPFKPPKVAFTTRIYHPNINSNGSICLDILRSQWSPALTISKVLLSICSLLCDPNPDDPLVPEIARIYKTDREKYNRIAREWTQKYAM'
p13
sS'evalue'
p14
S'2.62982e-105'
p15
sS'blast_query'
p16
S'gi|51338685|sp|P62837.1|UB2D2_HUMAN'
p17
sS'accession'
p18
S'2ESK_A'
p19
sS'len'
p20
S'149'
p21
sS'defline'
p22
S'Chain A, Human Ubiquitin-Conjugating Enzyme (E2) Ubch5b, Wild-Type'
p23
sS'gid'
p24
S'gi|83754945|pdb|2ESK|A'
p25
sS'rank'
p26
I0
sS'id'
p27
S'XX00000003'
p28
sbag0
(g8
g2
Ntp29
Rp30
(dp31
g12
S'MWKEGLATWVEYGNIVRVCTEAMKKAKAHLELNLARDIKDNKKGTFKYISVLVTEDGEKTELVNAAFATVFTAKASPQEPQTLELLLGALVLLLSTSEVVFVEAHFVSLVIATKNNEESVWPSGASEVAFKWLHVPLQRLHRELNDLARDPPAQCSAGPVGDDMFHWQATIMGPNDSPYQGGVFFLTIHFPTDYPFKPPKVAFTTRIYHPNINSNGSICLDILRSQWSPALTISKVLLSICSLLCDPNPDDPLVPEIARIYKTDREKYNRIAREWTQKYAM'
p32
sg14
S'2.04899e-103'
p33
sg16
g17
sg18
S'XP_009888993'
p34
sg20
S'281'
p35
sg22
S'PREDICTED: ubiquitin-conjugating enzyme E2 D2 [Charadrius vociferus]'
p36
sg24
S'gi|699690857|ref|XP_009888993.1|'
p37
sg26
I0
sg27
S'XX00000026'
p38
sbag0
(g8
g2
Ntp39
Rp40
(dp41
g12
S'GSMALKRIHKELNDLARDPPAQCSAGPVGDDMFHWQATIMGPNDSPYQGGVFFLTIHFPTDYPFKPPKVAFTTRIYHPNINSNGSICLDILRSQWSPALTISKVLLSICSLLCDPNPDDPLVPEIARIYKTDREKYNRIAREWTQKYAM'
p42
sg14
S'2.16019e-105'
p43
sg16
g17
sg18
S'3EB6_B'
p44
sg20
S'149'
p45
sg22
S'Chain B, Structure Of The Ciap2 Ring Domain Bound To Ubch5b'
p46
sg24
S'gi|198443360|pdb|3EB6|B'
p47
sg26
I0
sg27
S'XX00000001'
p48
sbag0
(g8
g2
Ntp49
Rp50
(dp51
g12
S'MHHHHHHMNSMALKRIHKELNDLARDPPAQCSAGPVGDDMFHWQATIMGPNDSPYQGGVFFLTIHFPTDYPFKPPKVAFTTRIYHPNINSNGSICLDILRSQWSPALTISKVLLSICSLLCDPNPDDPLVPEIARIYQTDREKYNRIAREWTQKYAM'
p52
sg14
S'6.71276e-105'
p53
sg16
g17
sg18
S'3L1Y_A'
p54
sg20
S'157'
p55
sg22
S'Chain A, Crystal Structure Of Human Ubc4 E2 Conjugating Enzyme'
p56
sg24
S'gi|295789407|pdb|3L1Y|A'
p57
sg26
I0
sg27
S'XX00000005'
p58
sbag0
(g8
g2
Ntp59
Rp60
(dp61
g12
S'MHHHHHHMNSMALKRINKELSDLARDPPAQCSAGPVGDDMFHWQATIMGPNDSPYQGGVFFLTIHFPTDYPFKPPKVAFTTRIYHPNINSNGSICLDILRSQWSPALTISKVLLSICSLLCDPNPDDPLVPEIARIYKTDRDKYNRISREWTQKYAM'
p62
sg14
S'1.8248e-102'
p63
sg16
g17
sg18
S'3L1Z_A'
p64
sg20
S'157'
p65
sg22
S'Chain A, Crystal Structure Of The U-Box Domain Of Human E4b Ubiquitin Ligase In Complex With Ubch5c E2 Ubiquitin Conjugating Enzyme'
p66
sg24
S'gi|295789408|pdb|3L1Z|A'
p67
sg26
I0
sg27
S'XX00000039'
p68
sbag0
(g8
g2
Ntp69
Rp70
(dp71
g12
S'GPLGSPEFMALKRINKELSDLARDPPAQCSAGPVGDDMFHWQATIMGPNDSPYQGGVFFLTIHFPTDYPFKPPKVAFTTRIYHPNINSNGSICLDILRSQWSPALTISKVLLSICSLLCDPNPDDPLVPEIARIYKTDRDKYNRISREWTQKYAM'
p72
sg14
S'2.85047e-102'
p73
sg16
g17
sg18
S'1X23_A'
p74
sg20
S'155'
p75
sg22
S'Chain A, Crystal Structure Of Ubch5c >gi|66360406|pdb|1X23|B Chain B, Crystal Structure Of Ubch5c >gi|66360407|pdb|1X23|C Chain C, Crystal Structure Of Ubch5c >gi|66360408|pdb|1X23|D Chain D, Crystal Structure Of Ubch5c'
p76
sg24
S'gi|66360405|pdb|1X23|A'
p77
sg26
I0
sg27
S'XX00000041'
p78
sbag0
(g8
g2
Ntp79
Rp80
(dp81
g12
S'GAMGSMALKRIHKELNDLARDPPAQCSAGPVGDDMFHWQATIMGPNDSPYQGGVFFLTIHFPTDYPFKPPKVAFTTRIYHPNINSNGSICLDILRSQWSPALTISKVLLSICSLLCDPNPDDPLVPEIARIYKTDREKYNRIAREWTQKYAM'
p82
sg14
S'1.81911e-105'
p83
sg16
g17
sg18
S'3TGD_A'
p84
sg20
S'152'
p85
sg22
S'Chain A, Crystal Structure Of The Human Ubiquitin-Conjugating Enzyme (E2) Ubch5b'
p86
sg24
S'gi|345111056|pdb|3TGD|A'
p87
sg26
I0
sg27
S'XX00000000'
p88
sbag0
(g8
g2
Ntp89
Rp90
(dp91
g12
S'AGSMALKRIHKELNDLARDPPAQCSAGPVGDDMFHWQATIMGPNDSPYQGGVFFLTIHFPTDYPFKPPKVAFTTRIYHPNINSNGSISLDILRSQWSPALTISKVLLSICSLLCDPNPDDPLVPEIARIYKTDREKYNRIAREWTQKYAM'
p92
sg14
S'3.18029e-104'
p93
sg16
g17
sg18
S'3A33_A'
p94
sg20
S'150'
p95
sg22
S'Chain A, Ubch5b~ubiquitin Conjugate'
p96
sg24
S'gi|269914374|pdb|3A33|A'
p97
sg26
I0
sg27
S'XX00000014'
p98
sbag0
(g8
g2
Ntp99
Rp100
(dp101
g12
S'GAMALKRIHKELNDLARDPPAQCSAGPVGDDMFHWQATAMGPNDSPYQGGVFFLTIHFPTDYPFKPPKVAFTTRIYHPNINSNGSICLDILRSQWSPALTISKVLLSICSLLCDPNPDDPLVPEIARIYKTDREKYNRIAREWTQKYAM'
p102
sg14
S'1.24135e-104'
p103
sg16
g17
sg18
S'2ESO_A'
p104
sg20
S'149'
p105
sg22
S'Chain A, Human Ubiquitin-Conjugating Enzyme (E2) Ubch5b Mutant Ile37ala'
p106
sg24
S'gi|83754948|pdb|2ESO|A'
p107
sg26
I0
sg27
S'XX00000008'
p108
sbag0
(g8
g2
Ntp109
Rp110
(dp111
g12
S'GAMALKRIHKELNDLARDPPAQCSAGPVGDDMFHWQATIMGPNDSPYQGGVFFLTIHFPTDYPFKPPKVAFTTRIYHPNINSNGSICLDALRSQWSPALTISKVLLSICSLLCDPNPDDPLVPEIARIYKTDREKYNRIAREWTQKYAM'
p112
sg14
S'1.24135e-104'
p113
sg16
g17
sg18
S'2ESP_A'
p114
sg20
S'149'
p115
sg22
S'Chain A, Human Ubiquitin-Conjugating Enzyme (E2) Ubch5b Mutant Ile88ala'
p116
sg24
S'gi|83754949|pdb|2ESP|A'
p117
sg26
I0
sg27
S'XX00000009'
p118
sbag0
(g8
g2
Ntp119
Rp120
(dp121
g12
S'GAMALKRIHKELNDLARDPPAQCSAGPVGDDMFHWQATIMGPNDSPYQGGVFFLTIHFPTDYPFKPPKVAFTTRIYHPNINSNGSICLDILRSQWGPALTISKVLLSICSLLCDPNPDDPLVPEIARIYKTDREKYNRIAREWTQKYAM'
p122
sg14
S'1.31106e-104'
p123
sg16
g17
sg18
S'2ESQ_A'
p124
sg20
S'149'
p125
sg22
S'Chain A, Human Ubiquitin-Conjugating Enzyme (E2) Ubch5b Mutant Ser94gly'
p126
sg24
S'gi|83754950|pdb|2ESQ|A'
p127
sg26
I0
sg27
S'XX00000010'
p128
sbag0
(g8
g2
Ntp129
Rp130
(dp131
g12
S'MALKRIHKELNDLARDPPAQCSAGPVGDDMFHWQATIMGPNDSPYQGGVFFLTIHFPTDYPFKPPRLAFTTRIYHPNINSNGSICLDILRSQWSPALTISKVLLSICSLLCDPNPDDPLVPEIARIYKTDNEKYNRLAREWTEKYAML'
p132
sg14
S'1.10674e-102'
p133
sg16
g17
sg18
S'XP_012696785'
p134
sg20
S'148'
p135
sg22
S'PREDICTED: ubiquitin-conjugating enzyme E2 D3 isoform X1 [Clupea harengus]'
p136
sg24
S'gi|831276521|ref|XP_012696785.1|'
p137
sg26
I1
sg27
S'XX00000032'
p138
sbag0
(g8
g2
Ntp139
Rp140
(dp141
g12
S'MALKRIHKELNDLARDPPAQCSAGPVGDDMFHWQATIMGPNDSPYQGGVFFLTIHFPTDYPFKPPKLAFTTRIYHPNINSNGSICLDILRSQWSPALTISKVLLSICSLLCDPNPDDPLVPEIARIYKTDTEKYNRLAREWTDKYAML'
p142
sg14
S'1.23452e-102'
p143
sg16
g17
sg18
S'NP_001133066'
p144
sg20
S'148'
p145
sg22
S'ubiquitin-conjugating enzyme E2 D3 [Salmo salar] >gi|197631801|gb|ACH70624.1| ubiquitin-conjugating enzyme E2D 2 isoform 1 [Salmo salar] >gi|642112484|emb|CDQ70075.1| unnamed protein product [Oncorhynchus mykiss]'
p146
sg24
S'gi|213511604|ref|NP_001133066.1|'
p147
sg26
I2
sg27
S'XX00000033'
p148
sbag0
(g8
g2
Ntp149
Rp150
(dp151
g12
S'MALKRIHKELNDLARDPPAQCSAGPVGDDMFHWQATIMGPNDSPYQGGVFFLTIHFPTDYPFKPPKVAFTTRIYHPNINSNGSICLDILRSQWSPALTISKVLLSICSLLCDPNPDDPLVPEIARIYKTDTDKYNRLAREWTDKYAML'
p152
sg14
S'1.67639e-102'
p153
sg16
g17
sg18
S'XP_010901795'
p154
sg20
S'148'
p155
sg22
S'PREDICTED: ubiquitin-conjugating enzyme E2 D2 isoform X1 [Esox lucius]'
p156
sg24
S'gi|742093727|ref|XP_010901795.1|'
p157
sg26
I1
sg27
S'XX00000037'
p158
sbag0
(g8
g2
Ntp159
Rp160
(dp161
g12
S'MALKRIHKELNDLGRDPPAQCSAGPVGDDMFHWQATIMGPNDSPYQGGVFFLTIHFPTDYPFKPPKLAFTTRIYHPNINSNGSICLDILRSQWSPALTISKVLLSICSLLCDPNPDDPLVPEIARIYKTDTEKYNRLAREWTEKYAML'
p162
sg14
S'1.80964e-102'
p163
sg16
g17
sg18
S'XP_014067667'
p164
sg20
S'148'
p165
sg22
S'PREDICTED: ubiquitin-conjugating enzyme E2 D2-like isoform X1 [Salmo salar]'
p166
sg24
S'gi|929112623|ref|XP_014067667.1|'
p167
sg26
I1
sg27
S'XX00000038'
p168
sbag0
(g8
g2
Ntp169
Rp170
(dp171
g12
S'MALKRIHKELNDLARDPPAQCSAGPVGDDMFHWQATIMGPNDSPYQGGVFFLTIHFPTDYPFKPPKVAFTTRIYHPNINSNGSICLDILRSQWSPALTISKVLLSICSLLCDPNPDDPLVPEIARIYKTDSEKYNRLALEWTAKYAML'
p172
sg14
S'3.3006e-102'
p173
sg16
g17
sg18
S'XP_010877648'
p174
sg20
S'148'
p175
sg22
S'PREDICTED: ubiquitin-conjugating enzyme E2 D2-like isoform X1 [Esox lucius]'
p176
sg24
S'gi|742136138|ref|XP_010877648.1|'
p177
sg26
I1
sg27
S'XX00000042'
p178
sbag0
(g8
g2
Ntp179
Rp180
(dp181
g12
S'MALKRINKELSDLARDPPAQCSAGPVGDDMFHWQATIMGPNDSPYQGGVFFLTIHFPTDYPFKPPKVAFTTRIYHPNINSNGSICLDILRSQWSPALTISKVLLSICSLLCDPNPDDPLVPEIARIYKTDRDKYNRLAREWTEKYAML'
p182
sg14
S'3.56296e-102'
p183
sg16
g17
sg18
S'NP_871621'
p184
sg20
S'148'
p185
sg22
S'ubiquitin-conjugating enzyme E2 D3 isoform 2 [Homo sapiens] >gi|441625544|ref|XP_004089088.1| PREDICTED: ubiquitin-conjugating enzyme E2 D3 isoform X3 [Nomascus leucogenys] >gi|471391365|ref|XP_004380248.1| PREDICTED: ubiquitin-conjugating enzyme E2 D3 isoform X1 [Trichechus manatus latirostris] >gi|472364707|ref|XP_004401915.1| PREDICTED: ubiquitin-conjugating enzyme E2 D3 isoform X2 [Odobenus rosmarus divergens] >gi|504169475|ref|XP_004594344.1| PREDICTED: ubiquitin-conjugating enzyme E2 D3 isoform X1 [Ochotona princeps] >gi|530378116|ref|XP_005263257.1| PREDICTED: ubiquitin-conjugating enzyme E2 D3 isoform X2 [Homo sapiens] >gi|530588403|ref|XP_005287917.1| PREDICTED: ubiquitin-conjugating enzyme E2 D3 isoform X1 [Chrysemys picta bellii] >gi|545846550|ref|XP_005656607.1| PREDICTED: ubiquitin-conjugating enzyme E2 D3 isoform X1 [Sus scrofa] >gi|555952471|ref|XP_005888421.1| PREDICTED: ubiquitin-conjugating enzyme E2 D3-like [Bos mutus] >gi|558179581|ref|XP_006126956.1| PREDICTED: ubiquitin-conjugating enzyme E2 D3 isoform X1 [Pelodiscus sinensis] >gi|560929028|ref|XP_006190668.1| PREDICTED: ubiquitin-conjugating enzyme E2 D3 [Camelus ferus] >gi|564338872|ref|XP_006233395.1| PREDICTED: ubiquitin-conjugating enzyme E2 D3 isoform X2 [Rattus norvegicus] >gi|564338874|ref|XP_006233396.1| PREDICTED: ubiquitin-conjugating enzyme E2 D3 isoform X2 [Rattus norvegicus] >gi|564338876|ref|XP_006233397.1| PREDICTED: ubiquitin-conjugating enzyme E2 D3 isoform X2 [Rattus norvegicus] >gi|578809333|ref|XP_006714360.1| PREDICTED: ubiquitin-conjugating enzyme E2 D3 isoform X2 [Homo sapiens] >gi|578809338|ref|XP_006714362.1| PREDICTED: ubiquitin-conjugating enzyme E2 D3 isoform X2 [Homo sapiens] >gi|585160821|ref|XP_006732637.1| PREDICTED: ubiquitin-conjugating enzyme E2 D3 isoform X2 [Leptonychotes weddellii] >gi|586484555|ref|XP_006872776.1| PREDICTED: ubiquitin-conjugating enzyme E2 D3 isoform X1 [Chrysochloris asiatica] >gi|586984247|ref|XP_006931000.1| PREDICTED: ubiquitin-conjugating enzyme E2 D3 isoform X1 [Felis catus] >gi|586984249|ref|XP_006931001.1| PREDICTED: ubiquitin-conjugating enzyme E2 D3 isoform X1 [Felis catus] >gi|586984251|ref|XP_006931002.1| PREDICTED: ubiquitin-conjugating enzyme E2 D3 isoform X1 [Felis catus] >gi|589914125|ref|XP_006970401.1| PREDICTED: ubiquitin-conjugating enzyme E2 D3 isoform X1 [Peromyscus maniculatus bairdii] >gi|589914127|ref|XP_006970402.1| PREDICTED: ubiquitin-conjugating enzyme E2 D3 isoform X2 [Peromyscus maniculatus bairdii] >gi|589914129|ref|XP_006970403.1| PREDICTED: ubiquitin-conjugating enzyme E2 D3 isoform X3 [Peromyscus maniculatus bairdii] >gi|591308777|ref|XP_007081011.1| PREDICTED: ubiquitin-conjugating enzyme E2 D3 isoform X1 [Panthera tigris altaica] >gi|591308779|ref|XP_007081012.1| PREDICTED: ubiquitin-conjugating enzyme E2 D3 isoform X2 [Panthera tigris altaica] >gi|594045826|ref|XP_006047379.1| PREDICTED: ubiquitin-conjugating enzyme E2 D3 isoform X1 [Bubalus bubalis] >gi|594045828|ref|XP_006047380.1| PREDICTED: ubiquitin-conjugating enzyme E2 D3 isoform X2 [Bubalus bubalis] >gi|594045830|ref|XP_006047381.1| PREDICTED: ubiquitin-conjugating enzyme E2 D3 isoform X3 [Bubalus bubalis] >gi|594045832|ref|XP_006047382.1| PREDICTED: ubiquitin-conjugating enzyme E2 D3 isoform X4 [Bubalus bubalis] >gi|594639417|ref|XP_007172983.1| PREDICTED: ubiquitin-conjugating enzyme E2 D3 isoform X1 [Balaenoptera acutorostrata scammoni] >gi|594639419|ref|XP_007172984.1| PREDICTED: ubiquitin-conjugating enzyme E2 D3 isoform X2 [Balaenoptera acutorostrata scammoni] >gi|594639421|ref|XP_007172985.1| PREDICTED: ubiquitin-conjugating enzyme E2 D3 isoform X3 [Balaenoptera acutorostrata scammoni] >gi|594639423|ref|XP_007172986.1| PREDICTED: ubiquitin-conjugating enzyme E2 D3 isoform X4 [Balaenoptera acutorostrata scammoni] >gi|594639425|ref|XP_007172987.1| PREDICTED: ubiquitin-conjugating enzyme E2 D3 isoform X5 [Balaenoptera acutorostrata scammoni] >gi|602646862|ref|XP_007429862.1| PREDICTED: ubiquitin-conjugating enzyme E2 D3 isoform X1 [Python bivittatus] >gi|612029793|ref|XP_007495928.1| PREDICTED: ubiquitin-conjugating enzyme E2 D3 isoform X1 [Monodelphis domestica] >gi|612029795|ref|XP_007495929.1| PREDICTED: ubiquitin-conjugating enzyme E2 D3 isoform X2 [Monodelphis domestica] >gi|612029797|ref|XP_007495930.1| PREDICTED: ubiquitin-conjugating enzyme E2 D3 isoform X3 [Monodelphis domestica] >gi|634883953|ref|XP_007951835.1| PREDICTED: ubiquitin-conjugating enzyme E2 D3 isoform X1 [Orycteropus afer afer] >gi|641729346|ref|XP_008154860.1| PREDICTED: ubiquitin-conjugating enzyme E2 D3 isoform X1 [Eptesicus fuscus] >gi|655856984|ref|XP_008265769.1| PREDICTED: ubiquitin-conjugating enzyme E2 D3 isoform X1 [Oryctolagus cuniculus] >gi|655856987|ref|XP_008265770.1| PREDICTED: ubiquitin-conjugating enzyme E2 D3 isoform X1 [Oryctolagus cuniculus] >gi|655856990|ref|XP_008265771.1| PREDICTED: ubiquitin-conjugating enzyme E2 D3 isoform X1 [Oryctolagus cuniculus] >gi|655856992|ref|XP_008265772.1| PREDICTED: ubiquitin-conjugating enzyme E2 D3 isoform X1 [Oryctolagus cuniculus] >gi|655856994|ref|XP_008265773.1| PREDICTED: ubiquitin-conjugating enzyme E2 D3 isoform X1 [Oryctolagus cuniculus] >gi|675648367|ref|XP_008991157.1| PREDICTED: ubiquitin-conjugating enzyme E2 D3 isoform X1 [Callithrix jacchus] >gi|675648369|ref|XP_008991158.1| PREDICTED: ubiquitin-conjugating enzyme E2 D3 isoform X1 [Callithrix jacchus] >gi|675648371|ref|XP_008991159.1| PREDICTED: ubiquitin-conjugating enzyme E2 D3 isoform X1 [Callithrix jacchus] >gi|675648373|ref|XP_008991160.1| PREDICTED: ubiquitin-conjugating enzyme E2 D3 isoform X1 [Callithrix jacchus] >gi|675648375|ref|XP_008991161.1| PREDICTED: ubiquitin-conjugating enzyme E2 D3 isoform X1 [Callithrix jacchus] >gi|685542319|ref|XP_009205536.1| PREDICTED: ubiquitin-conjugating enzyme E2 D3 isoform X4 [Papio anubis] >gi|685542321|ref|XP_009205537.1| PREDICTED: ubiquitin-conjugating enzyme E2 D3 isoform X4 [Papio anubis] >gi|685542323|ref|XP_009205538.1| PREDICTED: ubiquitin-conjugating enzyme E2 D3 isoform X4 [Papio anubis] >gi|685542325|ref|XP_009205539.1| PREDICTED: ubiquitin-conjugating enzyme E2 D3 isoform X4 [Papio anubis] >gi|685542327|ref|XP_009205540.1| PREDICTED: ubiquitin-conjugating enzyme E2 D3 isoform X4 [Papio anubis] >gi|724823290|ref|XP_010361624.1| PREDICTED: ubiquitin-conjugating enzyme E2 D3 isoform X1 [Rhinopithecus roxellana] >gi|724823293|ref|XP_010361625.1| PREDICTED: ubiquitin-conjugating enzyme E2 D3 isoform X1 [Rhinopithecus roxellana] >gi|724823296|ref|XP_010361626.1| PREDICTED: ubiquitin-conjugating enzyme E2 D3 isoform X1 [Rhinopithecus roxellana] >gi|725571838|ref|XP_010338411.1| PREDICTED: ubiquitin-conjugating enzyme E2 D3 isoform X1 [Saimiri boliviensis boliviensis] >gi|725571840|ref|XP_010338412.1| PREDICTED: ubiquitin-conjugating enzyme E2 D3 isoform X1 [Saimiri boliviensis boliviensis] >gi|725571842|ref|XP_010338413.1| PREDICTED: ubiquitin-conjugating enzyme E2 D3 isoform X1 [Saimiri boliviensis boliviensis] >gi|743716490|ref|XP_010951895.1| PREDICTED: ubiquitin-conjugating enzyme E2 D3 isoform X1 [Camelus bactrianus] >gi|743716492|ref|XP_010951896.1| PREDICTED: ubiquitin-conjugating enzyme E2 D3 isoform X1 [Camelus bactrianus] >gi|743716494|ref|XP_010951897.1| PREDICTED: ubiquitin-conjugating enzyme E2 D3 isoform X1 [Camelus bactrianus] >gi|743716496|ref|XP_010951898.1| PREDICTED: ubiquitin-conjugating enzyme E2 D3 isoform X1 [Camelus bactrianus] >gi|743716498|ref|XP_010951899.1| PREDICTED: ubiquitin-conjugating enzyme E2 D3 isoform X1 [Camelus bactrianus] >gi|744566160|ref|XP_010978942.1| PREDICTED: ubiquitin-conjugating enzyme E2 D3 isoform X1 [Camelus dromedarius] >gi|744566163|ref|XP_010978943.1| PREDICTED: ubiquitin-conjugating enzyme E2 D3 isoform X1 [Camelus dromedarius] >gi|744566166|ref|XP_010978945.1| PREDICTED: ubiquitin-conjugating enzyme E2 D3 isoform X1 [Camelus dromedarius] >gi|767932583|ref|XP_011530528.1| PREDICTED: ubiquitin-conjugating enzyme E2 D3 isoform X2 [Homo sapiens] >gi|795170532|ref|XP_011798610.1| PREDICTED: ubiquitin-conjugating enzyme E2 D3 isoform X2 [Colobus angolensis palliatus] >gi|795170537|ref|XP_011798611.1| PREDICTED: ubiquitin-conjugating enzyme E2 D3 isoform X2 [Colobus angolensis palliatus] >gi|795198341|ref|XP_011847651.1| PREDICTED: ubiquitin-conjugating enzyme E2 D3 isoform X2 [Mandrillus leucophaeus] >gi|795198351|ref|XP_011847652.1| PREDICTED: ubiquitin-conjugating enzyme E2 D3 isoform X2 [Mandrillus leucophaeus] >gi|795359795|ref|XP_011747465.1| PREDICTED: ubiquitin-conjugating enzyme E2 D3 isoform X1 [Macaca nemestrina] >gi|795359801|ref|XP_011747466.1| PREDICTED: ubiquitin-conjugating enzyme E2 D3 isoform X1 [Macaca nemestrina] >gi|795359806|ref|XP_011747467.1| PREDICTED: ubiquitin-conjugating enzyme E2 D3 isoform X1 [Macaca nemestrina] >gi|795359812|ref|XP_011747468.1| PREDICTED: ubiquitin-conjugating enzyme E2 D3 isoform X1 [Macaca nemestrina] >gi|795359818|ref|XP_011747469.1| PREDICTED: ubiquitin-conjugating enzyme E2 D3 isoform X1 [Macaca nemestrina] >gi|795359824|ref|XP_011747470.1| PREDICTED: ubiquitin-conjugating enzyme E2 D3 isoform X1 [Macaca nemestrina] >gi|795436403|ref|XP_011884274.1| PREDICTED: ubiquitin-conjugating enzyme E2 D3 isoform X2 [Cercocebus atys] >gi|795436407|ref|XP_011884275.1| PREDICTED: ubiquitin-conjugating enzyme E2 D3 isoform X2 [Cercocebus atys] >gi|795436412|ref|XP_011884277.1| PREDICTED: ubiquitin-conjugating enzyme E2 D3 isoform X2 [Cercocebus atys] >gi|803081778|ref|XP_012034994.1| PREDICTED: ubiquitin-conjugating enzyme E2 D3 isoform X1 [Ovis aries] >gi|803081780|ref|XP_012034995.1| PREDICTED: ubiquitin-conjugating enzyme E2 D3 isoform X1 [Ovis aries] >gi|803312763|ref|XP_012014703.1| PREDICTED: ubiquitin-conjugating enzyme E2 D3 isoform X1 [Ovis aries musimon] >gi|803312765|ref|XP_012014704.1| PREDICTED: ubiquitin-conjugating enzyme E2 D3 isoform X1 [Ovis aries musimon] >gi|803312767|ref|XP_012014705.1| PREDICTED: ubiquitin-conjugating enzyme E2 D3 isoform X1 [Ovis aries musimon] >gi|803312769|ref|XP_012014706.1| PREDICTED: ubiquitin-conjugating enzyme E2 D3 isoform X1 [Ovis aries musimon] >gi|817329771|ref|XP_012291894.1| PREDICTED: ubiquitin-conjugating enzyme E2 D3 isoform X1 [Aotus nancymaae] >gi|817329773|ref|XP_012291895.1| PREDICTED: ubiquitin-conjugating enzyme E2 D3 isoform X1 [Aotus nancymaae] >gi|817329775|ref|XP_012291896.1| PREDICTED: ubiquitin-conjugating enzyme E2 D3 isoform X1 [Aotus nancymaae] >gi|817329777|ref|XP_012291899.1| PREDICTED: ubiquitin-conjugating enzyme E2 D3 isoform X1 [Aotus nancymaae] >gi|821114107|ref|XP_012381131.1| PREDICTED: ubiquitin-conjugating enzyme E2 D3 isoform X1 [Dasypus novemcinctus] >gi|821114109|ref|XP_012381132.1| PREDICTED: ubiquitin-conjugating enzyme E2 D3 isoform X1 [Dasypus novemcinctus] >gi|821114111|ref|XP_012381133.1| PREDICTED: ubiquitin-conjugating enzyme E2 D3 isoform X1 [Dasypus novemcinctus] >gi|829797555|ref|XP_012626405.1| PREDICTED: ubiquitin-conjugating enzyme E2 D3 isoform X1 [Microcebus murinus] >gi|829797560|ref|XP_012626406.1| PREDICTED: ubiquitin-conjugating enzyme E2 D3 isoform X1 [Microcebus murinus] >gi|829797564|ref|XP_012626407.1| PREDICTED: ubiquitin-conjugating enzyme E2 D3 isoform X1 [Microcebus murinus] >gi|927170936|ref|XP_013844838.1| PREDICTED: ubiquitin-conjugating enzyme E2 D3 isoform X1 [Sus scrofa] >gi|927170940|ref|XP_013844840.1| PREDICTED: ubiquitin-conjugating enzyme E2 D3 isoform X1 [Sus scrofa] >gi|927170944|ref|XP_013844841.1| PREDICTED: ubiquitin-conjugating enzyme E2 D3 isoform X1 [Sus scrofa] >gi|927170948|ref|XP_013844842.1| PREDICTED: ubiquitin-conjugating enzyme E2 D3 isoform X1 [Sus scrofa] >gi|929412445|ref|XP_014117343.1| PREDICTED: ubiquitin-conjugating enzyme E2 D3 isoform X1 [Pseudopodoces humilis] >gi|21755161|dbj|BAC04632.1| unnamed protein product [Homo sapiens] >gi|149026019|gb|EDL82262.1| ubiquitin-conjugating enzyme E2D 3 (UBC4/5 homolog, yeast), isoform CRA_b [Rattus norvegicus]'
p186
sg24
S'gi|33149322|ref|NP_871621.1|'
p187
sg26
I2
sg27
S'XX00000047'
p188
sbag0
(g8
g2
Ntp189
Rp190
(dp191
g12
S'MALKRIHKELNDLARDPPAQCSAGPVGDDMFHWQATIMGPNDSPYQGGVFFLTIHFPTDYPFKPPKVAFTTRIYHPNINSNGSICLDILRSQWSPALTISKVLLSICSLLCDPNPDDPLVPEIARIYKTDRDKYNRISREWTQKYAM'
p192
sg14
S'3.17141e-104'
p193
sg16
g17
sg18
S'NP_001072141'
p194
sg20
S'147'
p195
sg22
S'ubiquitin-conjugating enzyme E2 D2 [Sus scrofa] >gi|121957312|sp|Q06AA9.1|UB2D2_PIG RecName: Full=Ubiquitin-conjugating enzyme E2 D2; AltName: Full=Ubiquitin carrier protein D2; AltName: Full=Ubiquitin-protein ligase D2 >gi|115371733|gb|ABI96191.1| UB2D2 [Sus scrofa]'
p196
sg24
S'gi|118403848|ref|NP_001072141.1|'
p197
sg26
I0
sg27
S'XX00000013'
p198
sbag0
(g8
g2
Ntp199
Rp200
(dp201
g12
S'MALKRIHKELNDLARDPPAQCSAGPVGDDMFHWQATIMGPNDSPYQCGVFFLTIHFPTDYPFKPPKVAFTTRIYHPNINSNGSICLDILRSQWSPALTISKVLLSICSLLCDPNPDDPLVPEIARIYKTDREKYNKIAREWTQKYAM'
p202
sg14
S'1.63364e-103'
p203
sg16
g17
sg18
S'XP_003970157'
p204
sg20
S'147'
p205
sg22
S'PREDICTED: ubiquitin-conjugating enzyme E2 D2 [Takifugu rubripes] >gi|768936849|ref|XP_011608702.1| PREDICTED: ubiquitin-conjugating enzyme E2 D2 [Takifugu rubripes]'
p206
sg24
S'gi|410913361|ref|XP_003970157.1|'
p207
sg26
I0
sg27
S'XX00000025'
p208
sbag0
(g8
g2
Ntp209
Rp210
(dp211
g12
S'MALKRIHKELNDLARDPPAQCSAGPVGDDMFHWQATIMGPNDSPYQGGVFFLTIHFPTDYPFKPPKLAFTTRIYHPNINSNGSICLDILRSQWSPALTISKVLLSICSLLCDPNPDDPLVPEIARIYKTDTEKYNRIAREWTQKYAM'
p212
sg14
S'5.7848e-104'
p213
sg16
g17
sg18
S'XP_014054871'
p214
sg20
S'147'
p215
sg22
S'PREDICTED: ubiquitin-conjugating enzyme E2 D3 isoform X1 [Salmo salar] >gi|221220484|gb|ACM08903.1| Ubiquitin-conjugating enzyme E2 D2 [Salmo salar] >gi|223647310|gb|ACN10413.1| Ubiquitin-conjugating enzyme E2 D2 [Salmo salar] >gi|223673193|gb|ACN12778.1| Ubiquitin-conjugating enzyme E2 D2 [Salmo salar]'
p216
sg24
S'gi|929088430|ref|XP_014054871.1|'
p217
sg26
I1
sg27
S'XX00000017'
p218
sbag0
(g8
g2
Ntp219
Rp220
(dp221
g12
S'MALKRIHKELHDLGRDPPAQCSAGPVGDDMFHWQATIMGPNDSPYQGGVFFLTIHFPTDYPFKPPKVAFTTRIYHPNINSNGSICLDILRSQWSPALTISKVLLSICSLLCDPNPDDPLVPEIARIYKTDREKYNRIAREWTQKYAM'
p222
sg14
S'7.27704e-104'
p223
sg16
g17
sg18
S'NP_957253'
p224
sg20
S'147'
p225
sg22
S'ubiquitin-conjugating enzyme E2 D2 [Danio rerio] >gi|318053993|ref|NP_001187535.1| ubiquitin-conjugating enzyme e2 d2 [Ictalurus punctatus] >gi|29124433|gb|AAH48896.1| Zgc:55886 protein [Danio rerio] >gi|41351441|gb|AAH65678.1| Zgc:55886 [Danio rerio] >gi|182890642|gb|AAI64949.1| Zgc:55886 protein [Danio rerio] >gi|308322035|gb|ADO28155.1| ubiquitin-conjugating enzyme e2 d2 [Ictalurus furcatus] >gi|308323291|gb|ADO28782.1| ubiquitin-conjugating enzyme e2 d2 [Ictalurus punctatus]'
p226
sg24
S'gi|41055694|ref|NP_957253.1|'
p227
sg26
I0
sg27
S'XX00000018'
p228
sbag0
(g8
g2
Ntp229
Rp230
(dp231
g12
S'MAVKRISKELNDLARDPPAQCSAGPVGDDMFHWQATIMGPNDSPYQGGVFFLTIHFPTDYPFKPPKVAFTTRIYHPNINSNGSICLDILRSQWSPALTISKVLLSICSLLCDPNPDDPLVPEIARIYKTDREKYNRIAREWTQKYAM'
p232
sg14
S'7.51957e-104'
p233
sg16
g17
sg18
S'XP_004718182'
p234
sg20
S'147'
p235
sg22
S'PREDICTED: ubiquitin-conjugating enzyme E2 D2 [Echinops telfairi]'
p236
sg24
S'gi|850270311|ref|XP_004718182.2|'
p237
sg26
I0
sg27
S'XX00000019'
p238
sbag0
(g8
g2
Ntp239
Rp240
(dp241
g12
S'MALKRIHKELNDLARDPPGQCSAGPVGGDMFHWQATIMGPNDSPYQGGVFFLTIHFPTDYPFKPPKVAFTTRIYHPNINSNGSICLDILRSQWSPALTISKVLLSICSLLCDPNPDDPLVPEIARIYKTDREKYNRIAREWTQKYAM'
p242
sg14
S'8.76269e-104'
p243
sg16
g17
sg18
S'XP_007172321'
p244
sg20
S'147'
p245
sg22
S'PREDICTED: ubiquitin-conjugating enzyme E2 D2 [Balaenoptera acutorostrata scammoni]'
p246
sg24
S'gi|594638034|ref|XP_007172321.1|'
p247
sg26
I0
sg27
S'XX00000020'
p248
sbag0
(g8
g2
Ntp249
Rp250
(dp251
g12
S'MALKRIHKELNDLARDPPAQCSAGPVGDDMFHWQATIMGPNDSPYQGGVFFLTIHFPTDYPFKPPKVAFTTRIYHPNINSNGSICLDILRSQWSPALTISKVLLSICSLLCDPNPDDPLVPEIARIYKTDSEKYSRIAREWTQKYAM'
p252
sg14
S'9.05473e-104'
p253
sg16
g17
sg18
S'XP_010877649'
p254
sg20
S'147'
p255
sg22
S'PREDICTED: ubiquitin-conjugating enzyme E2 D2-like isoform X2 [Esox lucius]'
p256
sg24
S'gi|742136142|ref|XP_010877649.1|'
p257
sg26
I1
sg27
S'XX00000022'
p258
sbag0
(g8
g2
Ntp259
Rp260
(dp261
g12
S'MALKRIHKELNDLARDPPAQCSAGPVGDDMFHWQATIMGPNDSPYQGGVFFLTIHFPTDYPFKPPKVAFTTRIYHPNINSNGSICLDILRSQWSPALTISKVLLSICSLLCDPNPDDPLVPEIARIYKTDTDKYNRIAREWTQKYAM'
p262
sg14
S'9.66833e-104'
p263
sg16
g17
sg18
S'XP_010901802'
p264
sg20
S'147'
p265
sg22
S'PREDICTED: ubiquitin-conjugating enzyme E2 D2 isoform X2 [Esox lucius]'
p266
sg24
S'gi|742093731|ref|XP_010901802.1|'
p267
sg26
I1
sg27
S'XX00000023'
p268
sbag0
(g8
g2
Ntp269
Rp270
(dp271
g12
S'MALKRIHKELNDLARDPPAQCSAGPVGDDMFHWQATIMGPNDSPYQGGVFFLTIHFPTDYPFKPPRLAFTTRIYHPNINSNGSICLDILRSQWSPALTISKVLLSICSLLCDPNPDDPLVPEIARIYKTDNEKYNRIAREWTQKYAM'
p272
sg14
S'1.52996e-103'
p273
sg16
g17
sg18
S'XP_012696793'
p274
sg20
S'147'
p275
sg22
S'PREDICTED: ubiquitin-conjugating enzyme E2 D3 isoform X2 [Clupea harengus]'
p276
sg24
S'gi|831276523|ref|XP_012696793.1|'
p277
sg26
I1
sg27
S'XX00000024'
p278
sbag0
(g8
g2
Ntp279
Rp280
(dp281
g12
S'MALKRIHKELNDLGRDPPAQCSAGPVGDDLFHWQATIMGPNDSPYQGGVFFLTIHFPTDYPFKPPKVAFTTRIYHPNINSNGSICLDILRSQWSPALTISKVLLSICSLLCDPNPDDPLVPEIARIYKTDREKYNKLAREWTQKYAM'
p282
sg14
S'2.05504e-103'
p283
sg16
g17
sg18
S'AJA90881'
p284
sg20
S'147'
p285
sg22
S'ubiquitin-conjugating enzyme UBE2D [Lethenteron camtschaticum]'
p286
sg24
S'gi|741207773|gb|AJA90881.1|'
p287
sg26
I0
sg27
S'XX00000027'
p288
sbag0
(g8
g2
Ntp289
Rp290
(dp291
g12
S'MALKRIHKELNDLARDPPAQCSAGTDGDDMFHWQATIMGPNDSPYQGGVFFLTIHFPTDYPFKPPKVAFTTRIYHPNINSNGSICLDILRSQWSPALTISKVLLSICSLLCDPNPDDPLVPEIARIYKTDREKYNRIAREWTQKYAM'
p292
sg14
S'3.62748e-103'
p293
sg16
g17
sg18
S'XP_010989038'
p294
sg20
S'147'
p295
sg22
S'PREDICTED: ubiquitin-conjugating enzyme E2 D2 [Camelus dromedarius]'
p296
sg24
S'gi|744596512|ref|XP_010989038.1|'
p297
sg26
I0
sg27
S'XX00000029'
p298
sbag0
(g8
g2
Ntp299
Rp300
(dp301
g12
S'MALKRIHKELNDLARDPPALCPAGPVGDDMFHWQATIMGPNDSPYQGGVFFLTIHFPTDYPFKPPKVAFTTRIYHPNINSNGSICLDILRSQWSPALTISKVLLSICSLLCDPNPDDPLVPEIARIYKTDREKYNRIAREWTQKYAM'
p302
sg14
S'3.91584e-103'
p303
sg16
g17
sg18
S'XP_007646064'
p304
sg20
S'147'
p305
sg22
S'PREDICTED: ubiquitin-conjugating enzyme E2 D2 isoform X1 [Cricetulus griseus]'
p306
sg24
S'gi|625210334|ref|XP_007646064.1|'
p307
sg26
I1
sg27
S'XX00000030'
p308
sbag0
(g8
g2
Ntp309
Rp310
(dp311
g12
S'MALKRIHKELNDLARDPPAQCSAGPVGDDMFHWQATIMGPNDSPYQGGVFFLTIHFPTDYPFKPPKLAFTTRIYHPNINSNGSICLDILRSQWSPALTISKVLLSICSLLCDPNPDDPLVPEIARIYKTDSDKYSRIAREWTQKYAM'
p312
sg14
S'1.24701e-102'
p313
sg16
g17
sg18
S'XP_013984369'
p314
sg20
S'147'
p315
sg22
S'PREDICTED: ubiquitin-conjugating enzyme E2 D2-like [Salmo salar] >gi|221221252|gb|ACM09287.1| Ubiquitin-conjugating enzyme E2 D2 [Salmo salar] >gi|223649226|gb|ACN11371.1| Ubiquitin-conjugating enzyme E2 D2 [Salmo salar]'
p316
sg24
S'gi|929050774|ref|XP_013984369.1|'
p317
sg26
I0
sg27
S'XX00000034'
p318
sbag0
(g8
g2
Ntp319
Rp320
(dp321
g12
S'MALKRIHKELTDLGRDPPAQCSAGPVGDDLFHWQATIMGPNDSPYQGGVFFLTIHFPTDYPFKPPKVAFTTRIYHPNINSNGSICLDILRSQWSPALTISKVLLTICSLLCDPNPDDPLVPEIARIYKTDNEKYNRIAREWTQKYAM'
p322
sg14
S'3.52125e-102'
p323
sg16
g17
sg18
S'ADO27985'
p324
sg20
S'147'
p325
sg22
S'ubiquitin-conjugating enzyme e2 d2 [Ictalurus furcatus]'
p326
sg24
S'gi|308321668|gb|ADO27985.1|'
p327
sg26
I0
sg27
S'XX00000046'
p328
sbag0
(g8
g2
Ntp329
Rp330
(dp331
g12
S'MALKRIHKELNDLARDPPAQCRAGPVGDDMFHWQATIMGPNDSPYQGGVFFLTIHFPTDYPFKPPKVAFTTRIYHPAINSNGSISLDILRSQWSPALTISKVLLSICSLLCDPNPDDPLVPEIARIYKTDREKYNRIAREWTQKYAM'
p332
sg14
S'1.90963e-102'
p333
sg16
g17
sg18
S'4AUQ_A'
p334
sg20
S'147'
p335
sg22
S'Chain A, Structure Of Birc7-Ubch5b-Ub Complex. >gi|400977357|pdb|4AUQ|D Chain D, Structure Of Birc7-Ubch5b-Ub Complex.'
p336
sg24
S'gi|400977354|pdb|4AUQ|A'
p337
sg26
I0
sg27
S'XX00000040'
p338
sbag0
(g8
g2
Ntp339
Rp340
(dp341
g12
S'MALKRIHKELNDLARDPPAQCSAGPVGDDMFHWQATIMGPNDSPYQGGVFFLTIHFPTDYPFKPPKLAFTTRIYHPNINSNGSICLDILRSQWSPALTISKVLLSICSLLCDPNPDDPLVPEIARIYXTDTEXYNRIAREWTQKYAM'
p342
sg14
S'4.19396e-102'
p343
sg16
g17
sg18
S'NP_001117973'
p344
sg20
S'147'
p345
sg22
S'ubiquitin-conjugating enzyme E2D 2 isoform 1 [Oncorhynchus mykiss] >gi|51472295|gb|AAU04541.1| ubiquitin-conjugating enzyme E2D 2 isoform 1 [Oncorhynchus mykiss]'
p346
sg24
S'gi|185136119|ref|NP_001117973.1|'
p347
sg26
I1
sg27
S'XX00000048'
p348
sbag0
(g8
g2
Ntp349
Rp350
(dp351
g12
S'ALKRIHKELNDLARDPPAQCRAGPVGDDMFHWQATIMGPNDSPYQGGVFFLTIHFPTDYPFKPPKVAFTTRIYHPNINSNGSIKLDILRSQWSPALTISKVLLSICSLLCDPNPDDPLVPEIARIYKTDREKYNRIAREWTQKYAM'
p352
sg14
S'3.44227e-102'
p353
sg16
g17
sg18
S'3ZNI_C'
p354
sg20
S'146'
p355
sg22
S'Chain C, Structure Of Phosphotyr363-cbl-b - Ubch5b-ub - Zap-70 Peptide Complex >gi|523309508|pdb|3ZNI|G Chain G, Structure Of Phosphotyr363-cbl-b - Ubch5b-ub - Zap-70 Peptide Complex >gi|523309509|pdb|3ZNI|K Chain K, Structure Of Phosphotyr363-cbl-b - Ubch5b-ub - Zap-70 Peptide Complex >gi|523309510|pdb|3ZNI|O Chain O, Structure Of Phosphotyr363-cbl-b - Ubch5b-ub - Zap-70 Peptide Complex >gi|806394275|pdb|4V3K|A Chain A, Rnf38-ubch5b-ub Complex >gi|806394276|pdb|4V3K|D Chain D, Rnf38-ubch5b-ub Complex'
p356
sg24
S'gi|523309507|pdb|3ZNI|C'
p357
sg26
I0
sg27
S'XX00000045'
p358
sbasb.