ccopy_reg
_reconstructor
p0
(cphylogenetics.homologs
HomologSet
p1
c__builtin__
object
p2
Ntp3
Rp4
(dp5
S'_homologs'
p6
(lp7
g0
(cphylogenetics.homologs
Homolog
p8
g2
Ntp9
Rp10
(dp11
S'sequence'
p12
S'GAMALKRIHKELNDLARDPPAQCSAGPVGDDMFHWQATIMGPNDSPYQGGVFFLTIHFPTDYPFKPPKVAFTTRIYHPNINSNGSICLDILRSQWSPALTISKVLLSICSLLCDPNPDDPLVPEIARIYKTDREKYNRIAREWTQKYAM'
p13
sS'evalue'
p14
S'2.62982e-105'
p15
sS'blast_query'
p16
S'gi|51338685|sp|P62837.1|UB2D2_HUMAN'
p17
sS'accession'
p18
S'2ESK_A'
p19
sS'len'
p20
S'149'
p21
sS'latest_align'
p22
S'------------------------------------------------------------------------------------------------------------------------------------GAMALKRIHKELNDLARDPPAQCSAGPVGDDMFHWQATIMGPNDSPYQGGVFFLTIHFPTDYPFKPPKVAFTTRIYHPNINSNGSICLDILRSQWSPALTISKVLLSICSLLCDPNPDDPLVPEIARIYKTDREKYNRIAREWTQKYAM-'
p23
sS'defline'
p24
S'Chain A, Human Ubiquitin-Conjugating Enzyme (E2) Ubch5b, Wild-Type'
p25
sS'gid'
p26
S'gi|83754945|pdb|2ESK|A'
p27
sS'rank'
p28
I0
sS'id'
p29
S'XX00000003'
p30
sbag0
(g8
g2
Ntp31
Rp32
(dp33
g12
S'MWKEGLATWVEYGNIVRVCTEAMKKAKAHLELNLARDIKDNKKGTFKYISVLVTEDGEKTELVNAAFATVFTAKASPQEPQTLELLLGALVLLLSTSEVVFVEAHFVSLVIATKNNEESVWPSGASEVAFKWLHVPLQRLHRELNDLARDPPAQCSAGPVGDDMFHWQATIMGPNDSPYQGGVFFLTIHFPTDYPFKPPKVAFTTRIYHPNINSNGSICLDILRSQWSPALTISKVLLSICSLLCDPNPDDPLVPEIARIYKTDREKYNRIAREWTQKYAM'
p34
sg14
S'2.04899e-103'
p35
sg16
g17
sg18
S'XP_009888993'
p36
sg20
S'281'
p37
sg22
S'MWKEGLATWVEYGNIVRVCTEAMKKAKAHLELNLARDIKDNKKGTFKYISVLVTEDGEKTELVNAAFATVFTAKASPQEPQTLELLLGALVLLLSTSEVVFVEAHFVSLVIATKNNEESVWPSGASEVAFKWLHVPLQRLHRELNDLARDPPAQCSAGPVGDDMFHWQATIMGPNDSPYQGGVFFLTIHFPTDYPFKPPKVAFTTRIYHPNINSNGSICLDILRSQWSPALTISKVLLSICSLLCDPNPDDPLVPEIARIYKTDREKYNRIAREWTQKYAM-'
p38
sg24
S'PREDICTED: ubiquitin-conjugating enzyme E2 D2 [Charadrius vociferus]'
p39
sg26
S'gi|699690857|ref|XP_009888993.1|'
p40
sg28
I0
sg29
S'XX00000026'
p41
sbag0
(g8
g2
Ntp42
Rp43
(dp44
g12
S'GSMALKRIHKELNDLARDPPAQCSAGPVGDDMFHWQATIMGPNDSPYQGGVFFLTIHFPTDYPFKPPKVAFTTRIYHPNINSNGSICLDILRSQWSPALTISKVLLSICSLLCDPNPDDPLVPEIARIYKTDREKYNRIAREWTQKYAM'
p45
sg14
S'2.16019e-105'
p46
sg16
g17
sg18
S'3EB6_B'
p47
sg20
S'149'
p48
sg22
S'------------------------------------------------------------------------------------------------------------------------------------GSMALKRIHKELNDLARDPPAQCSAGPVGDDMFHWQATIMGPNDSPYQGGVFFLTIHFPTDYPFKPPKVAFTTRIYHPNINSNGSICLDILRSQWSPALTISKVLLSICSLLCDPNPDDPLVPEIARIYKTDREKYNRIAREWTQKYAM-'
p49
sg24
S'Chain B, Structure Of The Ciap2 Ring Domain Bound To Ubch5b'
p50
sg26
S'gi|198443360|pdb|3EB6|B'
p51
sg28
I0
sg29
S'XX00000001'
p52
sbag0
(g8
g2
Ntp53
Rp54
(dp55
g12
S'MHHHHHHMNSMALKRIHKELNDLARDPPAQCSAGPVGDDMFHWQATIMGPNDSPYQGGVFFLTIHFPTDYPFKPPKVAFTTRIYHPNINSNGSICLDILRSQWSPALTISKVLLSICSLLCDPNPDDPLVPEIARIYQTDREKYNRIAREWTQKYAM'
p56
sg14
S'6.71276e-105'
p57
sg16
g17
sg18
S'3L1Y_A'
p58
sg20
S'157'
p59
sg22
S'----------------------------------------------------------------------------------------------------------------------------MHHHHHHMNSMALKRIHKELNDLARDPPAQCSAGPVGDDMFHWQATIMGPNDSPYQGGVFFLTIHFPTDYPFKPPKVAFTTRIYHPNINSNGSICLDILRSQWSPALTISKVLLSICSLLCDPNPDDPLVPEIARIYQTDREKYNRIAREWTQKYAM-'
p60
sg24
S'Chain A, Crystal Structure Of Human Ubc4 E2 Conjugating Enzyme'
p61
sg26
S'gi|295789407|pdb|3L1Y|A'
p62
sg28
I0
sg29
S'XX00000005'
p63
sbag0
(g8
g2
Ntp64
Rp65
(dp66
g12
S'MHHHHHHMNSMALKRINKELSDLARDPPAQCSAGPVGDDMFHWQATIMGPNDSPYQGGVFFLTIHFPTDYPFKPPKVAFTTRIYHPNINSNGSICLDILRSQWSPALTISKVLLSICSLLCDPNPDDPLVPEIARIYKTDRDKYNRISREWTQKYAM'
p67
sg14
S'1.8248e-102'
p68
sg16
g17
sg18
S'3L1Z_A'
p69
sg20
S'157'
p70
sg22
S'----------------------------------------------------------------------------------------------------------------------------MHHHHHHMNSMALKRINKELSDLARDPPAQCSAGPVGDDMFHWQATIMGPNDSPYQGGVFFLTIHFPTDYPFKPPKVAFTTRIYHPNINSNGSICLDILRSQWSPALTISKVLLSICSLLCDPNPDDPLVPEIARIYKTDRDKYNRISREWTQKYAM-'
p71
sg24
S'Chain A, Crystal Structure Of The U-Box Domain Of Human E4b Ubiquitin Ligase In Complex With Ubch5c E2 Ubiquitin Conjugating Enzyme'
p72
sg26
S'gi|295789408|pdb|3L1Z|A'
p73
sg28
I0
sg29
S'XX00000039'
p74
sbag0
(g8
g2
Ntp75
Rp76
(dp77
g12
S'GPLGSPEFMALKRINKELSDLARDPPAQCSAGPVGDDMFHWQATIMGPNDSPYQGGVFFLTIHFPTDYPFKPPKVAFTTRIYHPNINSNGSICLDILRSQWSPALTISKVLLSICSLLCDPNPDDPLVPEIARIYKTDRDKYNRISREWTQKYAM'
p78
sg14
S'2.85047e-102'
p79
sg16
g17
sg18
S'1X23_A'
p80
sg20
S'155'
p81
sg22
S'------------------------------------------------------------------------------------------------------------------------------GPLGSPEFMALKRINKELSDLARDPPAQCSAGPVGDDMFHWQATIMGPNDSPYQGGVFFLTIHFPTDYPFKPPKVAFTTRIYHPNINSNGSICLDILRSQWSPALTISKVLLSICSLLCDPNPDDPLVPEIARIYKTDRDKYNRISREWTQKYAM-'
p82
sg24
S'Chain A, Crystal Structure Of Ubch5c >gi|66360406|pdb|1X23|B Chain B, Crystal Structure Of Ubch5c >gi|66360407|pdb|1X23|C Chain C, Crystal Structure Of Ubch5c >gi|66360408|pdb|1X23|D Chain D, Crystal Structure Of Ubch5c'
p83
sg26
S'gi|66360405|pdb|1X23|A'
p84
sg28
I0
sg29
S'XX00000041'
p85
sbag0
(g8
g2
Ntp86
Rp87
(dp88
g12
S'GAMGSMALKRIHKELNDLARDPPAQCSAGPVGDDMFHWQATIMGPNDSPYQGGVFFLTIHFPTDYPFKPPKVAFTTRIYHPNINSNGSICLDILRSQWSPALTISKVLLSICSLLCDPNPDDPLVPEIARIYKTDREKYNRIAREWTQKYAM'
p89
sg14
S'1.81911e-105'
p90
sg16
g17
sg18
S'3TGD_A'
p91
sg20
S'152'
p92
sg22
S'---------------------------------------------------------------------------------------------------------------------------------GAMGSMALKRIHKELNDLARDPPAQCSAGPVGDDMFHWQATIMGPNDSPYQGGVFFLTIHFPTDYPFKPPKVAFTTRIYHPNINSNGSICLDILRSQWSPALTISKVLLSICSLLCDPNPDDPLVPEIARIYKTDREKYNRIAREWTQKYAM-'
p93
sg24
S'Chain A, Crystal Structure Of The Human Ubiquitin-Conjugating Enzyme (E2) Ubch5b'
p94
sg26
S'gi|345111056|pdb|3TGD|A'
p95
sg28
I0
sg29
S'XX00000000'
p96
sbag0
(g8
g2
Ntp97
Rp98
(dp99
g12
S'AGSMALKRIHKELNDLARDPPAQCSAGPVGDDMFHWQATIMGPNDSPYQGGVFFLTIHFPTDYPFKPPKVAFTTRIYHPNINSNGSISLDILRSQWSPALTISKVLLSICSLLCDPNPDDPLVPEIARIYKTDREKYNRIAREWTQKYAM'
p100
sg14
S'3.18029e-104'
p101
sg16
g17
sg18
S'3A33_A'
p102
sg20
S'150'
p103
sg22
S'-----------------------------------------------------------------------------------------------------------------------------------AGSMALKRIHKELNDLARDPPAQCSAGPVGDDMFHWQATIMGPNDSPYQGGVFFLTIHFPTDYPFKPPKVAFTTRIYHPNINSNGSISLDILRSQWSPALTISKVLLSICSLLCDPNPDDPLVPEIARIYKTDREKYNRIAREWTQKYAM-'
p104
sg24
S'Chain A, Ubch5b~ubiquitin Conjugate'
p105
sg26
S'gi|269914374|pdb|3A33|A'
p106
sg28
I0
sg29
S'XX00000014'
p107
sbag0
(g8
g2
Ntp108
Rp109
(dp110
g12
S'GAMALKRIHKELNDLARDPPAQCSAGPVGDDMFHWQATAMGPNDSPYQGGVFFLTIHFPTDYPFKPPKVAFTTRIYHPNINSNGSICLDILRSQWSPALTISKVLLSICSLLCDPNPDDPLVPEIARIYKTDREKYNRIAREWTQKYAM'
p111
sg14
S'1.24135e-104'
p112
sg16
g17
sg18
S'2ESO_A'
p113
sg20
S'149'
p114
sg22
S'------------------------------------------------------------------------------------------------------------------------------------GAMALKRIHKELNDLARDPPAQCSAGPVGDDMFHWQATAMGPNDSPYQGGVFFLTIHFPTDYPFKPPKVAFTTRIYHPNINSNGSICLDILRSQWSPALTISKVLLSICSLLCDPNPDDPLVPEIARIYKTDREKYNRIAREWTQKYAM-'
p115
sg24
S'Chain A, Human Ubiquitin-Conjugating Enzyme (E2) Ubch5b Mutant Ile37ala'
p116
sg26
S'gi|83754948|pdb|2ESO|A'
p117
sg28
I0
sg29
S'XX00000008'
p118
sbag0
(g8
g2
Ntp119
Rp120
(dp121
g12
S'GAMALKRIHKELNDLARDPPAQCSAGPVGDDMFHWQATIMGPNDSPYQGGVFFLTIHFPTDYPFKPPKVAFTTRIYHPNINSNGSICLDALRSQWSPALTISKVLLSICSLLCDPNPDDPLVPEIARIYKTDREKYNRIAREWTQKYAM'
p122
sg14
S'1.24135e-104'
p123
sg16
g17
sg18
S'2ESP_A'
p124
sg20
S'149'
p125
sg22
S'------------------------------------------------------------------------------------------------------------------------------------GAMALKRIHKELNDLARDPPAQCSAGPVGDDMFHWQATIMGPNDSPYQGGVFFLTIHFPTDYPFKPPKVAFTTRIYHPNINSNGSICLDALRSQWSPALTISKVLLSICSLLCDPNPDDPLVPEIARIYKTDREKYNRIAREWTQKYAM-'
p126
sg24
S'Chain A, Human Ubiquitin-Conjugating Enzyme (E2) Ubch5b Mutant Ile88ala'
p127
sg26
S'gi|83754949|pdb|2ESP|A'
p128
sg28
I0
sg29
S'XX00000009'
p129
sbag0
(g8
g2
Ntp130
Rp131
(dp132
g12
S'GAMALKRIHKELNDLARDPPAQCSAGPVGDDMFHWQATIMGPNDSPYQGGVFFLTIHFPTDYPFKPPKVAFTTRIYHPNINSNGSICLDILRSQWGPALTISKVLLSICSLLCDPNPDDPLVPEIARIYKTDREKYNRIAREWTQKYAM'
p133
sg14
S'1.31106e-104'
p134
sg16
g17
sg18
S'2ESQ_A'
p135
sg20
S'149'
p136
sg22
S'------------------------------------------------------------------------------------------------------------------------------------GAMALKRIHKELNDLARDPPAQCSAGPVGDDMFHWQATIMGPNDSPYQGGVFFLTIHFPTDYPFKPPKVAFTTRIYHPNINSNGSICLDILRSQWGPALTISKVLLSICSLLCDPNPDDPLVPEIARIYKTDREKYNRIAREWTQKYAM-'
p137
sg24
S'Chain A, Human Ubiquitin-Conjugating Enzyme (E2) Ubch5b Mutant Ser94gly'
p138
sg26
S'gi|83754950|pdb|2ESQ|A'
p139
sg28
I0
sg29
S'XX00000010'
p140
sbag0
(g8
g2
Ntp141
Rp142
(dp143
g12
S'MALKRIHKELNDLARDPPAQCSAGPVGDDMFHWQATIMGPNDSPYQGGVFFLTIHFPTDYPFKPPRLAFTTRIYHPNINSNGSICLDILRSQWSPALTISKVLLSICSLLCDPNPDDPLVPEIARIYKTDNEKYNRLAREWTEKYAML'
p144
sg14
S'1.10674e-102'
p145
sg16
g17
sg18
S'XP_012696785'
p146
sg20
S'148'
p147
sg22
S'--------------------------------------------------------------------------------------------------------------------------------------MALKRIHKELNDLARDPPAQCSAGPVGDDMFHWQATIMGPNDSPYQGGVFFLTIHFPTDYPFKPPRLAFTTRIYHPNINSNGSICLDILRSQWSPALTISKVLLSICSLLCDPNPDDPLVPEIARIYKTDNEKYNRLAREWTEKYAML'
p148
sg24
S'PREDICTED: ubiquitin-conjugating enzyme E2 D3 isoform X1 [Clupea harengus]'
p149
sg26
S'gi|831276521|ref|XP_012696785.1|'
p150
sg28
I1
sg29
S'XX00000032'
p151
sbag0
(g8
g2
Ntp152
Rp153
(dp154
g12
S'MALKRIHKELNDLARDPPAQCSAGPVGDDMFHWQATIMGPNDSPYQGGVFFLTIHFPTDYPFKPPKLAFTTRIYHPNINSNGSICLDILRSQWSPALTISKVLLSICSLLCDPNPDDPLVPEIARIYKTDTEKYNRLAREWTDKYAML'
p155
sg14
S'1.23452e-102'
p156
sg16
g17
sg18
S'NP_001133066'
p157
sg20
S'148'
p158
sg22
S'--------------------------------------------------------------------------------------------------------------------------------------MALKRIHKELNDLARDPPAQCSAGPVGDDMFHWQATIMGPNDSPYQGGVFFLTIHFPTDYPFKPPKLAFTTRIYHPNINSNGSICLDILRSQWSPALTISKVLLSICSLLCDPNPDDPLVPEIARIYKTDTEKYNRLAREWTDKYAML'
p159
sg24
S'ubiquitin-conjugating enzyme E2 D3 [Salmo salar] >gi|197631801|gb|ACH70624.1| ubiquitin-conjugating enzyme E2D 2 isoform 1 [Salmo salar] >gi|642112484|emb|CDQ70075.1| unnamed protein product [Oncorhynchus mykiss]'
p160
sg26
S'gi|213511604|ref|NP_001133066.1|'
p161
sg28
I2
sg29
S'XX00000033'
p162
sbag0
(g8
g2
Ntp163
Rp164
(dp165
g12
S'MALKRIHKELNDLARDPPAQCSAGPVGDDMFHWQATIMGPNDSPYQGGVFFLTIHFPTDYPFKPPKVAFTTRIYHPNINSNGSICLDILRSQWSPALTISKVLLSICSLLCDPNPDDPLVPEIARIYKTDTDKYNRLAREWTDKYAML'
p166
sg14
S'1.67639e-102'
p167
sg16
g17
sg18
S'XP_010901795'
p168
sg20
S'148'
p169
sg22
S'--------------------------------------------------------------------------------------------------------------------------------------MALKRIHKELNDLARDPPAQCSAGPVGDDMFHWQATIMGPNDSPYQGGVFFLTIHFPTDYPFKPPKVAFTTRIYHPNINSNGSICLDILRSQWSPALTISKVLLSICSLLCDPNPDDPLVPEIARIYKTDTDKYNRLAREWTDKYAML'
p170
sg24
S'PREDICTED: ubiquitin-conjugating enzyme E2 D2 isoform X1 [Esox lucius]'
p171
sg26
S'gi|742093727|ref|XP_010901795.1|'
p172
sg28
I1
sg29
S'XX00000037'
p173
sbag0
(g8
g2
Ntp174
Rp175
(dp176
g12
S'MALKRIHKELNDLGRDPPAQCSAGPVGDDMFHWQATIMGPNDSPYQGGVFFLTIHFPTDYPFKPPKLAFTTRIYHPNINSNGSICLDILRSQWSPALTISKVLLSICSLLCDPNPDDPLVPEIARIYKTDTEKYNRLAREWTEKYAML'
p177
sg14
S'1.80964e-102'
p178
sg16
g17
sg18
S'XP_014067667'
p179
sg20
S'148'
p180
sg22
S'--------------------------------------------------------------------------------------------------------------------------------------MALKRIHKELNDLGRDPPAQCSAGPVGDDMFHWQATIMGPNDSPYQGGVFFLTIHFPTDYPFKPPKLAFTTRIYHPNINSNGSICLDILRSQWSPALTISKVLLSICSLLCDPNPDDPLVPEIARIYKTDTEKYNRLAREWTEKYAML'
p181
sg24
S'PREDICTED: ubiquitin-conjugating enzyme E2 D2-like isoform X1 [Salmo salar]'
p182
sg26
S'gi|929112623|ref|XP_014067667.1|'
p183
sg28
I1
sg29
S'XX00000038'
p184
sbag0
(g8
g2
Ntp185
Rp186
(dp187
g12
S'MALKRIHKELNDLARDPPAQCSAGPVGDDMFHWQATIMGPNDSPYQGGVFFLTIHFPTDYPFKPPKVAFTTRIYHPNINSNGSICLDILRSQWSPALTISKVLLSICSLLCDPNPDDPLVPEIARIYKTDSEKYNRLALEWTAKYAML'
p188
sg14
S'3.3006e-102'
p189
sg16
g17
sg18
S'XP_010877648'
p190
sg20
S'148'
p191
sg22
S'--------------------------------------------------------------------------------------------------------------------------------------MALKRIHKELNDLARDPPAQCSAGPVGDDMFHWQATIMGPNDSPYQGGVFFLTIHFPTDYPFKPPKVAFTTRIYHPNINSNGSICLDILRSQWSPALTISKVLLSICSLLCDPNPDDPLVPEIARIYKTDSEKYNRLALEWTAKYAML'
p192
sg24
S'PREDICTED: ubiquitin-conjugating enzyme E2 D2-like isoform X1 [Esox lucius]'
p193
sg26
S'gi|742136138|ref|XP_010877648.1|'
p194
sg28
I1
sg29
S'XX00000042'
p195
sbag0
(g8
g2
Ntp196
Rp197
(dp198
g12
S'MALKRINKELSDLARDPPAQCSAGPVGDDMFHWQATIMGPNDSPYQGGVFFLTIHFPTDYPFKPPKVAFTTRIYHPNINSNGSICLDILRSQWSPALTISKVLLSICSLLCDPNPDDPLVPEIARIYKTDRDKYNRLAREWTEKYAML'
p199
sg14
S'3.56296e-102'
p200
sg16
g17
sg18
S'NP_871621'
p201
sg20
S'148'
p202
sg22
S'--------------------------------------------------------------------------------------------------------------------------------------MALKRINKELSDLARDPPAQCSAGPVGDDMFHWQATIMGPNDSPYQGGVFFLTIHFPTDYPFKPPKVAFTTRIYHPNINSNGSICLDILRSQWSPALTISKVLLSICSLLCDPNPDDPLVPEIARIYKTDRDKYNRLAREWTEKYAML'
p203
sg24
S'ubiquitin-conjugating enzyme E2 D3 isoform 2 [Homo sapiens] >gi|441625544|ref|XP_004089088.1| PREDICTED: ubiquitin-conjugating enzyme E2 D3 isoform X3 [Nomascus leucogenys] >gi|471391365|ref|XP_004380248.1| PREDICTED: ubiquitin-conjugating enzyme E2 D3 isoform X1 [Trichechus manatus latirostris] >gi|472364707|ref|XP_004401915.1| PREDICTED: ubiquitin-conjugating enzyme E2 D3 isoform X2 [Odobenus rosmarus divergens] >gi|504169475|ref|XP_004594344.1| PREDICTED: ubiquitin-conjugating enzyme E2 D3 isoform X1 [Ochotona princeps] >gi|530378116|ref|XP_005263257.1| PREDICTED: ubiquitin-conjugating enzyme E2 D3 isoform X2 [Homo sapiens] >gi|530588403|ref|XP_005287917.1| PREDICTED: ubiquitin-conjugating enzyme E2 D3 isoform X1 [Chrysemys picta bellii] >gi|545846550|ref|XP_005656607.1| PREDICTED: ubiquitin-conjugating enzyme E2 D3 isoform X1 [Sus scrofa] >gi|555952471|ref|XP_005888421.1| PREDICTED: ubiquitin-conjugating enzyme E2 D3-like [Bos mutus] >gi|558179581|ref|XP_006126956.1| PREDICTED: ubiquitin-conjugating enzyme E2 D3 isoform X1 [Pelodiscus sinensis] >gi|560929028|ref|XP_006190668.1| PREDICTED: ubiquitin-conjugating enzyme E2 D3 [Camelus ferus] >gi|564338872|ref|XP_006233395.1| PREDICTED: ubiquitin-conjugating enzyme E2 D3 isoform X2 [Rattus norvegicus] >gi|564338874|ref|XP_006233396.1| PREDICTED: ubiquitin-conjugating enzyme E2 D3 isoform X2 [Rattus norvegicus] >gi|564338876|ref|XP_006233397.1| PREDICTED: ubiquitin-conjugating enzyme E2 D3 isoform X2 [Rattus norvegicus] >gi|578809333|ref|XP_006714360.1| PREDICTED: ubiquitin-conjugating enzyme E2 D3 isoform X2 [Homo sapiens] >gi|578809338|ref|XP_006714362.1| PREDICTED: ubiquitin-conjugating enzyme E2 D3 isoform X2 [Homo sapiens] >gi|585160821|ref|XP_006732637.1| PREDICTED: ubiquitin-conjugating enzyme E2 D3 isoform X2 [Leptonychotes weddellii] >gi|586484555|ref|XP_006872776.1| PREDICTED: ubiquitin-conjugating enzyme E2 D3 isoform X1 [Chrysochloris asiatica] >gi|586984247|ref|XP_006931000.1| PREDICTED: ubiquitin-conjugating enzyme E2 D3 isoform X1 [Felis catus] >gi|586984249|ref|XP_006931001.1| PREDICTED: ubiquitin-conjugating enzyme E2 D3 isoform X1 [Felis catus] >gi|586984251|ref|XP_006931002.1| PREDICTED: ubiquitin-conjugating enzyme E2 D3 isoform X1 [Felis catus] >gi|589914125|ref|XP_006970401.1| PREDICTED: ubiquitin-conjugating enzyme E2 D3 isoform X1 [Peromyscus maniculatus bairdii] >gi|589914127|ref|XP_006970402.1| PREDICTED: ubiquitin-conjugating enzyme E2 D3 isoform X2 [Peromyscus maniculatus bairdii] >gi|589914129|ref|XP_006970403.1| PREDICTED: ubiquitin-conjugating enzyme E2 D3 isoform X3 [Peromyscus maniculatus bairdii] >gi|591308777|ref|XP_007081011.1| PREDICTED: ubiquitin-conjugating enzyme E2 D3 isoform X1 [Panthera tigris altaica] >gi|591308779|ref|XP_007081012.1| PREDICTED: ubiquitin-conjugating enzyme E2 D3 isoform X2 [Panthera tigris altaica] >gi|594045826|ref|XP_006047379.1| PREDICTED: ubiquitin-conjugating enzyme E2 D3 isoform X1 [Bubalus bubalis] >gi|594045828|ref|XP_006047380.1| PREDICTED: ubiquitin-conjugating enzyme E2 D3 isoform X2 [Bubalus bubalis] >gi|594045830|ref|XP_006047381.1| PREDICTED: ubiquitin-conjugating enzyme E2 D3 isoform X3 [Bubalus bubalis] >gi|594045832|ref|XP_006047382.1| PREDICTED: ubiquitin-conjugating enzyme E2 D3 isoform X4 [Bubalus bubalis] >gi|594639417|ref|XP_007172983.1| PREDICTED: ubiquitin-conjugating enzyme E2 D3 isoform X1 [Balaenoptera acutorostrata scammoni] >gi|594639419|ref|XP_007172984.1| PREDICTED: ubiquitin-conjugating enzyme E2 D3 isoform X2 [Balaenoptera acutorostrata scammoni] >gi|594639421|ref|XP_007172985.1| PREDICTED: ubiquitin-conjugating enzyme E2 D3 isoform X3 [Balaenoptera acutorostrata scammoni] >gi|594639423|ref|XP_007172986.1| PREDICTED: ubiquitin-conjugating enzyme E2 D3 isoform X4 [Balaenoptera acutorostrata scammoni] >gi|594639425|ref|XP_007172987.1| PREDICTED: ubiquitin-conjugating enzyme E2 D3 isoform X5 [Balaenoptera acutorostrata scammoni] >gi|602646862|ref|XP_007429862.1| PREDICTED: ubiquitin-conjugating enzyme E2 D3 isoform X1 [Python bivittatus] >gi|612029793|ref|XP_007495928.1| PREDICTED: ubiquitin-conjugating enzyme E2 D3 isoform X1 [Monodelphis domestica] >gi|612029795|ref|XP_007495929.1| PREDICTED: ubiquitin-conjugating enzyme E2 D3 isoform X2 [Monodelphis domestica] >gi|612029797|ref|XP_007495930.1| PREDICTED: ubiquitin-conjugating enzyme E2 D3 isoform X3 [Monodelphis domestica] >gi|634883953|ref|XP_007951835.1| PREDICTED: ubiquitin-conjugating enzyme E2 D3 isoform X1 [Orycteropus afer afer] >gi|641729346|ref|XP_008154860.1| PREDICTED: ubiquitin-conjugating enzyme E2 D3 isoform X1 [Eptesicus fuscus] >gi|655856984|ref|XP_008265769.1| PREDICTED: ubiquitin-conjugating enzyme E2 D3 isoform X1 [Oryctolagus cuniculus] >gi|655856987|ref|XP_008265770.1| PREDICTED: ubiquitin-conjugating enzyme E2 D3 isoform X1 [Oryctolagus cuniculus] >gi|655856990|ref|XP_008265771.1| PREDICTED: ubiquitin-conjugating enzyme E2 D3 isoform X1 [Oryctolagus cuniculus] >gi|655856992|ref|XP_008265772.1| PREDICTED: ubiquitin-conjugating enzyme E2 D3 isoform X1 [Oryctolagus cuniculus] >gi|655856994|ref|XP_008265773.1| PREDICTED: ubiquitin-conjugating enzyme E2 D3 isoform X1 [Oryctolagus cuniculus] >gi|675648367|ref|XP_008991157.1| PREDICTED: ubiquitin-conjugating enzyme E2 D3 isoform X1 [Callithrix jacchus] >gi|675648369|ref|XP_008991158.1| PREDICTED: ubiquitin-conjugating enzyme E2 D3 isoform X1 [Callithrix jacchus] >gi|675648371|ref|XP_008991159.1| PREDICTED: ubiquitin-conjugating enzyme E2 D3 isoform X1 [Callithrix jacchus] >gi|675648373|ref|XP_008991160.1| PREDICTED: ubiquitin-conjugating enzyme E2 D3 isoform X1 [Callithrix jacchus] >gi|675648375|ref|XP_008991161.1| PREDICTED: ubiquitin-conjugating enzyme E2 D3 isoform X1 [Callithrix jacchus] >gi|685542319|ref|XP_009205536.1| PREDICTED: ubiquitin-conjugating enzyme E2 D3 isoform X4 [Papio anubis] >gi|685542321|ref|XP_009205537.1| PREDICTED: ubiquitin-conjugating enzyme E2 D3 isoform X4 [Papio anubis] >gi|685542323|ref|XP_009205538.1| PREDICTED: ubiquitin-conjugating enzyme E2 D3 isoform X4 [Papio anubis] >gi|685542325|ref|XP_009205539.1| PREDICTED: ubiquitin-conjugating enzyme E2 D3 isoform X4 [Papio anubis] >gi|685542327|ref|XP_009205540.1| PREDICTED: ubiquitin-conjugating enzyme E2 D3 isoform X4 [Papio anubis] >gi|724823290|ref|XP_010361624.1| PREDICTED: ubiquitin-conjugating enzyme E2 D3 isoform X1 [Rhinopithecus roxellana] >gi|724823293|ref|XP_010361625.1| PREDICTED: ubiquitin-conjugating enzyme E2 D3 isoform X1 [Rhinopithecus roxellana] >gi|724823296|ref|XP_010361626.1| PREDICTED: ubiquitin-conjugating enzyme E2 D3 isoform X1 [Rhinopithecus roxellana] >gi|725571838|ref|XP_010338411.1| PREDICTED: ubiquitin-conjugating enzyme E2 D3 isoform X1 [Saimiri boliviensis boliviensis] >gi|725571840|ref|XP_010338412.1| PREDICTED: ubiquitin-conjugating enzyme E2 D3 isoform X1 [Saimiri boliviensis boliviensis] >gi|725571842|ref|XP_010338413.1| PREDICTED: ubiquitin-conjugating enzyme E2 D3 isoform X1 [Saimiri boliviensis boliviensis] >gi|743716490|ref|XP_010951895.1| PREDICTED: ubiquitin-conjugating enzyme E2 D3 isoform X1 [Camelus bactrianus] >gi|743716492|ref|XP_010951896.1| PREDICTED: ubiquitin-conjugating enzyme E2 D3 isoform X1 [Camelus bactrianus] >gi|743716494|ref|XP_010951897.1| PREDICTED: ubiquitin-conjugating enzyme E2 D3 isoform X1 [Camelus bactrianus] >gi|743716496|ref|XP_010951898.1| PREDICTED: ubiquitin-conjugating enzyme E2 D3 isoform X1 [Camelus bactrianus] >gi|743716498|ref|XP_010951899.1| PREDICTED: ubiquitin-conjugating enzyme E2 D3 isoform X1 [Camelus bactrianus] >gi|744566160|ref|XP_010978942.1| PREDICTED: ubiquitin-conjugating enzyme E2 D3 isoform X1 [Camelus dromedarius] >gi|744566163|ref|XP_010978943.1| PREDICTED: ubiquitin-conjugating enzyme E2 D3 isoform X1 [Camelus dromedarius] >gi|744566166|ref|XP_010978945.1| PREDICTED: ubiquitin-conjugating enzyme E2 D3 isoform X1 [Camelus dromedarius] >gi|767932583|ref|XP_011530528.1| PREDICTED: ubiquitin-conjugating enzyme E2 D3 isoform X2 [Homo sapiens] >gi|795170532|ref|XP_011798610.1| PREDICTED: ubiquitin-conjugating enzyme E2 D3 isoform X2 [Colobus angolensis palliatus] >gi|795170537|ref|XP_011798611.1| PREDICTED: ubiquitin-conjugating enzyme E2 D3 isoform X2 [Colobus angolensis palliatus] >gi|795198341|ref|XP_011847651.1| PREDICTED: ubiquitin-conjugating enzyme E2 D3 isoform X2 [Mandrillus leucophaeus] >gi|795198351|ref|XP_011847652.1| PREDICTED: ubiquitin-conjugating enzyme E2 D3 isoform X2 [Mandrillus leucophaeus] >gi|795359795|ref|XP_011747465.1| PREDICTED: ubiquitin-conjugating enzyme E2 D3 isoform X1 [Macaca nemestrina] >gi|795359801|ref|XP_011747466.1| PREDICTED: ubiquitin-conjugating enzyme E2 D3 isoform X1 [Macaca nemestrina] >gi|795359806|ref|XP_011747467.1| PREDICTED: ubiquitin-conjugating enzyme E2 D3 isoform X1 [Macaca nemestrina] >gi|795359812|ref|XP_011747468.1| PREDICTED: ubiquitin-conjugating enzyme E2 D3 isoform X1 [Macaca nemestrina] >gi|795359818|ref|XP_011747469.1| PREDICTED: ubiquitin-conjugating enzyme E2 D3 isoform X1 [Macaca nemestrina] >gi|795359824|ref|XP_011747470.1| PREDICTED: ubiquitin-conjugating enzyme E2 D3 isoform X1 [Macaca nemestrina] >gi|795436403|ref|XP_011884274.1| PREDICTED: ubiquitin-conjugating enzyme E2 D3 isoform X2 [Cercocebus atys] >gi|795436407|ref|XP_011884275.1| PREDICTED: ubiquitin-conjugating enzyme E2 D3 isoform X2 [Cercocebus atys] >gi|795436412|ref|XP_011884277.1| PREDICTED: ubiquitin-conjugating enzyme E2 D3 isoform X2 [Cercocebus atys] >gi|803081778|ref|XP_012034994.1| PREDICTED: ubiquitin-conjugating enzyme E2 D3 isoform X1 [Ovis aries] >gi|803081780|ref|XP_012034995.1| PREDICTED: ubiquitin-conjugating enzyme E2 D3 isoform X1 [Ovis aries] >gi|803312763|ref|XP_012014703.1| PREDICTED: ubiquitin-conjugating enzyme E2 D3 isoform X1 [Ovis aries musimon] >gi|803312765|ref|XP_012014704.1| PREDICTED: ubiquitin-conjugating enzyme E2 D3 isoform X1 [Ovis aries musimon] >gi|803312767|ref|XP_012014705.1| PREDICTED: ubiquitin-conjugating enzyme E2 D3 isoform X1 [Ovis aries musimon] >gi|803312769|ref|XP_012014706.1| PREDICTED: ubiquitin-conjugating enzyme E2 D3 isoform X1 [Ovis aries musimon] >gi|817329771|ref|XP_012291894.1| PREDICTED: ubiquitin-conjugating enzyme E2 D3 isoform X1 [Aotus nancymaae] >gi|817329773|ref|XP_012291895.1| PREDICTED: ubiquitin-conjugating enzyme E2 D3 isoform X1 [Aotus nancymaae] >gi|817329775|ref|XP_012291896.1| PREDICTED: ubiquitin-conjugating enzyme E2 D3 isoform X1 [Aotus nancymaae] >gi|817329777|ref|XP_012291899.1| PREDICTED: ubiquitin-conjugating enzyme E2 D3 isoform X1 [Aotus nancymaae] >gi|821114107|ref|XP_012381131.1| PREDICTED: ubiquitin-conjugating enzyme E2 D3 isoform X1 [Dasypus novemcinctus] >gi|821114109|ref|XP_012381132.1| PREDICTED: ubiquitin-conjugating enzyme E2 D3 isoform X1 [Dasypus novemcinctus] >gi|821114111|ref|XP_012381133.1| PREDICTED: ubiquitin-conjugating enzyme E2 D3 isoform X1 [Dasypus novemcinctus] >gi|829797555|ref|XP_012626405.1| PREDICTED: ubiquitin-conjugating enzyme E2 D3 isoform X1 [Microcebus murinus] >gi|829797560|ref|XP_012626406.1| PREDICTED: ubiquitin-conjugating enzyme E2 D3 isoform X1 [Microcebus murinus] >gi|829797564|ref|XP_012626407.1| PREDICTED: ubiquitin-conjugating enzyme E2 D3 isoform X1 [Microcebus murinus] >gi|927170936|ref|XP_013844838.1| PREDICTED: ubiquitin-conjugating enzyme E2 D3 isoform X1 [Sus scrofa] >gi|927170940|ref|XP_013844840.1| PREDICTED: ubiquitin-conjugating enzyme E2 D3 isoform X1 [Sus scrofa] >gi|927170944|ref|XP_013844841.1| PREDICTED: ubiquitin-conjugating enzyme E2 D3 isoform X1 [Sus scrofa] >gi|927170948|ref|XP_013844842.1| PREDICTED: ubiquitin-conjugating enzyme E2 D3 isoform X1 [Sus scrofa] >gi|929412445|ref|XP_014117343.1| PREDICTED: ubiquitin-conjugating enzyme E2 D3 isoform X1 [Pseudopodoces humilis] >gi|21755161|dbj|BAC04632.1| unnamed protein product [Homo sapiens] >gi|149026019|gb|EDL82262.1| ubiquitin-conjugating enzyme E2D 3 (UBC4/5 homolog, yeast), isoform CRA_b [Rattus norvegicus]'
p204
sg26
S'gi|33149322|ref|NP_871621.1|'
p205
sg28
I2
sg29
S'XX00000047'
p206
sbag0
(g8
g2
Ntp207
Rp208
(dp209
g12
S'MALKRIHKELNDLARDPPAQCSAGPVGDDMFHWQATIMGPNDSPYQGGVFFLTIHFPTDYPFKPPKVAFTTRIYHPNINSNGSICLDILRSQWSPALTISKVLLSICSLLCDPNPDDPLVPEIARIYKTDRDKYNRISREWTQKYAM'
p210
sg14
S'3.17141e-104'
p211
sg16
g17
sg18
S'NP_001072141'
p212
sg20
S'147'
p213
sg22
S'--------------------------------------------------------------------------------------------------------------------------------------MALKRIHKELNDLARDPPAQCSAGPVGDDMFHWQATIMGPNDSPYQGGVFFLTIHFPTDYPFKPPKVAFTTRIYHPNINSNGSICLDILRSQWSPALTISKVLLSICSLLCDPNPDDPLVPEIARIYKTDRDKYNRISREWTQKYAM-'
p214
sg24
S'ubiquitin-conjugating enzyme E2 D2 [Sus scrofa] >gi|121957312|sp|Q06AA9.1|UB2D2_PIG RecName: Full=Ubiquitin-conjugating enzyme E2 D2; AltName: Full=Ubiquitin carrier protein D2; AltName: Full=Ubiquitin-protein ligase D2 >gi|115371733|gb|ABI96191.1| UB2D2 [Sus scrofa]'
p215
sg26
S'gi|118403848|ref|NP_001072141.1|'
p216
sg28
I0
sg29
S'XX00000013'
p217
sbag0
(g8
g2
Ntp218
Rp219
(dp220
g12
S'MALKRIHKELNDLARDPPAQCSAGPVGDDMFHWQATIMGPNDSPYQCGVFFLTIHFPTDYPFKPPKVAFTTRIYHPNINSNGSICLDILRSQWSPALTISKVLLSICSLLCDPNPDDPLVPEIARIYKTDREKYNKIAREWTQKYAM'
p221
sg14
S'1.63364e-103'
p222
sg16
g17
sg18
S'XP_003970157'
p223
sg20
S'147'
p224
sg22
S'--------------------------------------------------------------------------------------------------------------------------------------MALKRIHKELNDLARDPPAQCSAGPVGDDMFHWQATIMGPNDSPYQCGVFFLTIHFPTDYPFKPPKVAFTTRIYHPNINSNGSICLDILRSQWSPALTISKVLLSICSLLCDPNPDDPLVPEIARIYKTDREKYNKIAREWTQKYAM-'
p225
sg24
S'PREDICTED: ubiquitin-conjugating enzyme E2 D2 [Takifugu rubripes] >gi|768936849|ref|XP_011608702.1| PREDICTED: ubiquitin-conjugating enzyme E2 D2 [Takifugu rubripes]'
p226
sg26
S'gi|410913361|ref|XP_003970157.1|'
p227
sg28
I0
sg29
S'XX00000025'
p228
sbag0
(g8
g2
Ntp229
Rp230
(dp231
g12
S'MALKRIHKELNDLARDPPAQCSAGPVGDDMFHWQATIMGPNDSPYQGGVFFLTIHFPTDYPFKPPKLAFTTRIYHPNINSNGSICLDILRSQWSPALTISKVLLSICSLLCDPNPDDPLVPEIARIYKTDTEKYNRIAREWTQKYAM'
p232
sg14
S'5.7848e-104'
p233
sg16
g17
sg18
S'XP_014054871'
p234
sg20
S'147'
p235
sg22
S'--------------------------------------------------------------------------------------------------------------------------------------MALKRIHKELNDLARDPPAQCSAGPVGDDMFHWQATIMGPNDSPYQGGVFFLTIHFPTDYPFKPPKLAFTTRIYHPNINSNGSICLDILRSQWSPALTISKVLLSICSLLCDPNPDDPLVPEIARIYKTDTEKYNRIAREWTQKYAM-'
p236
sg24
S'PREDICTED: ubiquitin-conjugating enzyme E2 D3 isoform X1 [Salmo salar] >gi|221220484|gb|ACM08903.1| Ubiquitin-conjugating enzyme E2 D2 [Salmo salar] >gi|223647310|gb|ACN10413.1| Ubiquitin-conjugating enzyme E2 D2 [Salmo salar] >gi|223673193|gb|ACN12778.1| Ubiquitin-conjugating enzyme E2 D2 [Salmo salar]'
p237
sg26
S'gi|929088430|ref|XP_014054871.1|'
p238
sg28
I1
sg29
S'XX00000017'
p239
sbag0
(g8
g2
Ntp240
Rp241
(dp242
g12
S'MALKRIHKELHDLGRDPPAQCSAGPVGDDMFHWQATIMGPNDSPYQGGVFFLTIHFPTDYPFKPPKVAFTTRIYHPNINSNGSICLDILRSQWSPALTISKVLLSICSLLCDPNPDDPLVPEIARIYKTDREKYNRIAREWTQKYAM'
p243
sg14
S'7.27704e-104'
p244
sg16
g17
sg18
S'NP_957253'
p245
sg20
S'147'
p246
sg22
S'--------------------------------------------------------------------------------------------------------------------------------------MALKRIHKELHDLGRDPPAQCSAGPVGDDMFHWQATIMGPNDSPYQGGVFFLTIHFPTDYPFKPPKVAFTTRIYHPNINSNGSICLDILRSQWSPALTISKVLLSICSLLCDPNPDDPLVPEIARIYKTDREKYNRIAREWTQKYAM-'
p247
sg24
S'ubiquitin-conjugating enzyme E2 D2 [Danio rerio] >gi|318053993|ref|NP_001187535.1| ubiquitin-conjugating enzyme e2 d2 [Ictalurus punctatus] >gi|29124433|gb|AAH48896.1| Zgc:55886 protein [Danio rerio] >gi|41351441|gb|AAH65678.1| Zgc:55886 [Danio rerio] >gi|182890642|gb|AAI64949.1| Zgc:55886 protein [Danio rerio] >gi|308322035|gb|ADO28155.1| ubiquitin-conjugating enzyme e2 d2 [Ictalurus furcatus] >gi|308323291|gb|ADO28782.1| ubiquitin-conjugating enzyme e2 d2 [Ictalurus punctatus]'
p248
sg26
S'gi|41055694|ref|NP_957253.1|'
p249
sg28
I0
sg29
S'XX00000018'
p250
sbag0
(g8
g2
Ntp251
Rp252
(dp253
g12
S'MAVKRISKELNDLARDPPAQCSAGPVGDDMFHWQATIMGPNDSPYQGGVFFLTIHFPTDYPFKPPKVAFTTRIYHPNINSNGSICLDILRSQWSPALTISKVLLSICSLLCDPNPDDPLVPEIARIYKTDREKYNRIAREWTQKYAM'
p254
sg14
S'7.51957e-104'
p255
sg16
g17
sg18
S'XP_004718182'
p256
sg20
S'147'
p257
sg22
S'--------------------------------------------------------------------------------------------------------------------------------------MAVKRISKELNDLARDPPAQCSAGPVGDDMFHWQATIMGPNDSPYQGGVFFLTIHFPTDYPFKPPKVAFTTRIYHPNINSNGSICLDILRSQWSPALTISKVLLSICSLLCDPNPDDPLVPEIARIYKTDREKYNRIAREWTQKYAM-'
p258
sg24
S'PREDICTED: ubiquitin-conjugating enzyme E2 D2 [Echinops telfairi]'
p259
sg26
S'gi|850270311|ref|XP_004718182.2|'
p260
sg28
I0
sg29
S'XX00000019'
p261
sbag0
(g8
g2
Ntp262
Rp263
(dp264
g12
S'MALKRIHKELNDLARDPPGQCSAGPVGGDMFHWQATIMGPNDSPYQGGVFFLTIHFPTDYPFKPPKVAFTTRIYHPNINSNGSICLDILRSQWSPALTISKVLLSICSLLCDPNPDDPLVPEIARIYKTDREKYNRIAREWTQKYAM'
p265
sg14
S'8.76269e-104'
p266
sg16
g17
sg18
S'XP_007172321'
p267
sg20
S'147'
p268
sg22
S'--------------------------------------------------------------------------------------------------------------------------------------MALKRIHKELNDLARDPPGQCSAGPVGGDMFHWQATIMGPNDSPYQGGVFFLTIHFPTDYPFKPPKVAFTTRIYHPNINSNGSICLDILRSQWSPALTISKVLLSICSLLCDPNPDDPLVPEIARIYKTDREKYNRIAREWTQKYAM-'
p269
sg24
S'PREDICTED: ubiquitin-conjugating enzyme E2 D2 [Balaenoptera acutorostrata scammoni]'
p270
sg26
S'gi|594638034|ref|XP_007172321.1|'
p271
sg28
I0
sg29
S'XX00000020'
p272
sbag0
(g8
g2
Ntp273
Rp274
(dp275
g12
S'MALKRIHKELNDLARDPPAQCSAGPVGDDMFHWQATIMGPNDSPYQGGVFFLTIHFPTDYPFKPPKVAFTTRIYHPNINSNGSICLDILRSQWSPALTISKVLLSICSLLCDPNPDDPLVPEIARIYKTDSEKYSRIAREWTQKYAM'
p276
sg14
S'9.05473e-104'
p277
sg16
g17
sg18
S'XP_010877649'
p278
sg20
S'147'
p279
sg22
S'--------------------------------------------------------------------------------------------------------------------------------------MALKRIHKELNDLARDPPAQCSAGPVGDDMFHWQATIMGPNDSPYQGGVFFLTIHFPTDYPFKPPKVAFTTRIYHPNINSNGSICLDILRSQWSPALTISKVLLSICSLLCDPNPDDPLVPEIARIYKTDSEKYSRIAREWTQKYAM-'
p280
sg24
S'PREDICTED: ubiquitin-conjugating enzyme E2 D2-like isoform X2 [Esox lucius]'
p281
sg26
S'gi|742136142|ref|XP_010877649.1|'
p282
sg28
I1
sg29
S'XX00000022'
p283
sbag0
(g8
g2
Ntp284
Rp285
(dp286
g12
S'MALKRIHKELNDLARDPPAQCSAGPVGDDMFHWQATIMGPNDSPYQGGVFFLTIHFPTDYPFKPPKVAFTTRIYHPNINSNGSICLDILRSQWSPALTISKVLLSICSLLCDPNPDDPLVPEIARIYKTDTDKYNRIAREWTQKYAM'
p287
sg14
S'9.66833e-104'
p288
sg16
g17
sg18
S'XP_010901802'
p289
sg20
S'147'
p290
sg22
S'--------------------------------------------------------------------------------------------------------------------------------------MALKRIHKELNDLARDPPAQCSAGPVGDDMFHWQATIMGPNDSPYQGGVFFLTIHFPTDYPFKPPKVAFTTRIYHPNINSNGSICLDILRSQWSPALTISKVLLSICSLLCDPNPDDPLVPEIARIYKTDTDKYNRIAREWTQKYAM-'
p291
sg24
S'PREDICTED: ubiquitin-conjugating enzyme E2 D2 isoform X2 [Esox lucius]'
p292
sg26
S'gi|742093731|ref|XP_010901802.1|'
p293
sg28
I1
sg29
S'XX00000023'
p294
sbag0
(g8
g2
Ntp295
Rp296
(dp297
g12
S'MALKRIHKELNDLARDPPAQCSAGPVGDDMFHWQATIMGPNDSPYQGGVFFLTIHFPTDYPFKPPRLAFTTRIYHPNINSNGSICLDILRSQWSPALTISKVLLSICSLLCDPNPDDPLVPEIARIYKTDNEKYNRIAREWTQKYAM'
p298
sg14
S'1.52996e-103'
p299
sg16
g17
sg18
S'XP_012696793'
p300
sg20
S'147'
p301
sg22
S'--------------------------------------------------------------------------------------------------------------------------------------MALKRIHKELNDLARDPPAQCSAGPVGDDMFHWQATIMGPNDSPYQGGVFFLTIHFPTDYPFKPPRLAFTTRIYHPNINSNGSICLDILRSQWSPALTISKVLLSICSLLCDPNPDDPLVPEIARIYKTDNEKYNRIAREWTQKYAM-'
p302
sg24
S'PREDICTED: ubiquitin-conjugating enzyme E2 D3 isoform X2 [Clupea harengus]'
p303
sg26
S'gi|831276523|ref|XP_012696793.1|'
p304
sg28
I1
sg29
S'XX00000024'
p305
sbag0
(g8
g2
Ntp306
Rp307
(dp308
g12
S'MALKRIHKELNDLGRDPPAQCSAGPVGDDLFHWQATIMGPNDSPYQGGVFFLTIHFPTDYPFKPPKVAFTTRIYHPNINSNGSICLDILRSQWSPALTISKVLLSICSLLCDPNPDDPLVPEIARIYKTDREKYNKLAREWTQKYAM'
p309
sg14
S'2.05504e-103'
p310
sg16
g17
sg18
S'AJA90881'
p311
sg20
S'147'
p312
sg22
S'--------------------------------------------------------------------------------------------------------------------------------------MALKRIHKELNDLGRDPPAQCSAGPVGDDLFHWQATIMGPNDSPYQGGVFFLTIHFPTDYPFKPPKVAFTTRIYHPNINSNGSICLDILRSQWSPALTISKVLLSICSLLCDPNPDDPLVPEIARIYKTDREKYNKLAREWTQKYAM-'
p313
sg24
S'ubiquitin-conjugating enzyme UBE2D [Lethenteron camtschaticum]'
p314
sg26
S'gi|741207773|gb|AJA90881.1|'
p315
sg28
I0
sg29
S'XX00000027'
p316
sbag0
(g8
g2
Ntp317
Rp318
(dp319
g12
S'MALKRIHKELNDLARDPPAQCSAGTDGDDMFHWQATIMGPNDSPYQGGVFFLTIHFPTDYPFKPPKVAFTTRIYHPNINSNGSICLDILRSQWSPALTISKVLLSICSLLCDPNPDDPLVPEIARIYKTDREKYNRIAREWTQKYAM'
p320
sg14
S'3.62748e-103'
p321
sg16
g17
sg18
S'XP_010989038'
p322
sg20
S'147'
p323
sg22
S'--------------------------------------------------------------------------------------------------------------------------------------MALKRIHKELNDLARDPPAQCSAGTDGDDMFHWQATIMGPNDSPYQGGVFFLTIHFPTDYPFKPPKVAFTTRIYHPNINSNGSICLDILRSQWSPALTISKVLLSICSLLCDPNPDDPLVPEIARIYKTDREKYNRIAREWTQKYAM-'
p324
sg24
S'PREDICTED: ubiquitin-conjugating enzyme E2 D2 [Camelus dromedarius]'
p325
sg26
S'gi|744596512|ref|XP_010989038.1|'
p326
sg28
I0
sg29
S'XX00000029'
p327
sbag0
(g8
g2
Ntp328
Rp329
(dp330
g12
S'MALKRIHKELNDLARDPPALCPAGPVGDDMFHWQATIMGPNDSPYQGGVFFLTIHFPTDYPFKPPKVAFTTRIYHPNINSNGSICLDILRSQWSPALTISKVLLSICSLLCDPNPDDPLVPEIARIYKTDREKYNRIAREWTQKYAM'
p331
sg14
S'3.91584e-103'
p332
sg16
g17
sg18
S'XP_007646064'
p333
sg20
S'147'
p334
sg22
S'--------------------------------------------------------------------------------------------------------------------------------------MALKRIHKELNDLARDPPALCPAGPVGDDMFHWQATIMGPNDSPYQGGVFFLTIHFPTDYPFKPPKVAFTTRIYHPNINSNGSICLDILRSQWSPALTISKVLLSICSLLCDPNPDDPLVPEIARIYKTDREKYNRIAREWTQKYAM-'
p335
sg24
S'PREDICTED: ubiquitin-conjugating enzyme E2 D2 isoform X1 [Cricetulus griseus]'
p336
sg26
S'gi|625210334|ref|XP_007646064.1|'
p337
sg28
I1
sg29
S'XX00000030'
p338
sbag0
(g8
g2
Ntp339
Rp340
(dp341
g12
S'MALKRIHKELNDLARDPPAQCSAGPVGDDMFHWQATIMGPNDSPYQGGVFFLTIHFPTDYPFKPPKLAFTTRIYHPNINSNGSICLDILRSQWSPALTISKVLLSICSLLCDPNPDDPLVPEIARIYKTDSDKYSRIAREWTQKYAM'
p342
sg14
S'1.24701e-102'
p343
sg16
g17
sg18
S'XP_013984369'
p344
sg20
S'147'
p345
sg22
S'--------------------------------------------------------------------------------------------------------------------------------------MALKRIHKELNDLARDPPAQCSAGPVGDDMFHWQATIMGPNDSPYQGGVFFLTIHFPTDYPFKPPKLAFTTRIYHPNINSNGSICLDILRSQWSPALTISKVLLSICSLLCDPNPDDPLVPEIARIYKTDSDKYSRIAREWTQKYAM-'
p346
sg24
S'PREDICTED: ubiquitin-conjugating enzyme E2 D2-like [Salmo salar] >gi|221221252|gb|ACM09287.1| Ubiquitin-conjugating enzyme E2 D2 [Salmo salar] >gi|223649226|gb|ACN11371.1| Ubiquitin-conjugating enzyme E2 D2 [Salmo salar]'
p347
sg26
S'gi|929050774|ref|XP_013984369.1|'
p348
sg28
I0
sg29
S'XX00000034'
p349
sbag0
(g8
g2
Ntp350
Rp351
(dp352
g12
S'MALKRIHKELTDLGRDPPAQCSAGPVGDDLFHWQATIMGPNDSPYQGGVFFLTIHFPTDYPFKPPKVAFTTRIYHPNINSNGSICLDILRSQWSPALTISKVLLTICSLLCDPNPDDPLVPEIARIYKTDNEKYNRIAREWTQKYAM'
p353
sg14
S'3.52125e-102'
p354
sg16
g17
sg18
S'ADO27985'
p355
sg20
S'147'
p356
sg22
S'--------------------------------------------------------------------------------------------------------------------------------------MALKRIHKELTDLGRDPPAQCSAGPVGDDLFHWQATIMGPNDSPYQGGVFFLTIHFPTDYPFKPPKVAFTTRIYHPNINSNGSICLDILRSQWSPALTISKVLLTICSLLCDPNPDDPLVPEIARIYKTDNEKYNRIAREWTQKYAM-'
p357
sg24
S'ubiquitin-conjugating enzyme e2 d2 [Ictalurus furcatus]'
p358
sg26
S'gi|308321668|gb|ADO27985.1|'
p359
sg28
I0
sg29
S'XX00000046'
p360
sbag0
(g8
g2
Ntp361
Rp362
(dp363
g12
S'MALKRIHKELNDLARDPPAQCRAGPVGDDMFHWQATIMGPNDSPYQGGVFFLTIHFPTDYPFKPPKVAFTTRIYHPAINSNGSISLDILRSQWSPALTISKVLLSICSLLCDPNPDDPLVPEIARIYKTDREKYNRIAREWTQKYAM'
p364
sg14
S'1.90963e-102'
p365
sg16
g17
sg18
S'4AUQ_A'
p366
sg20
S'147'
p367
sg22
S'--------------------------------------------------------------------------------------------------------------------------------------MALKRIHKELNDLARDPPAQCRAGPVGDDMFHWQATIMGPNDSPYQGGVFFLTIHFPTDYPFKPPKVAFTTRIYHPAINSNGSISLDILRSQWSPALTISKVLLSICSLLCDPNPDDPLVPEIARIYKTDREKYNRIAREWTQKYAM-'
p368
sg24
S'Chain A, Structure Of Birc7-Ubch5b-Ub Complex. >gi|400977357|pdb|4AUQ|D Chain D, Structure Of Birc7-Ubch5b-Ub Complex.'
p369
sg26
S'gi|400977354|pdb|4AUQ|A'
p370
sg28
I0
sg29
S'XX00000040'
p371
sbag0
(g8
g2
Ntp372
Rp373
(dp374
g12
S'MALKRIHKELNDLARDPPAQCSAGPVGDDMFHWQATIMGPNDSPYQGGVFFLTIHFPTDYPFKPPKLAFTTRIYHPNINSNGSICLDILRSQWSPALTISKVLLSICSLLCDPNPDDPLVPEIARIYXTDTEXYNRIAREWTQKYAM'
p375
sg14
S'4.19396e-102'
p376
sg16
g17
sg18
S'NP_001117973'
p377
sg20
S'147'
p378
sg22
S'--------------------------------------------------------------------------------------------------------------------------------------MALKRIHKELNDLARDPPAQCSAGPVGDDMFHWQATIMGPNDSPYQGGVFFLTIHFPTDYPFKPPKLAFTTRIYHPNINSNGSICLDILRSQWSPALTISKVLLSICSLLCDPNPDDPLVPEIARIYXTDTEXYNRIAREWTQKYAM-'
p379
sg24
S'ubiquitin-conjugating enzyme E2D 2 isoform 1 [Oncorhynchus mykiss] >gi|51472295|gb|AAU04541.1| ubiquitin-conjugating enzyme E2D 2 isoform 1 [Oncorhynchus mykiss]'
p380
sg26
S'gi|185136119|ref|NP_001117973.1|'
p381
sg28
I1
sg29
S'XX00000048'
p382
sbag0
(g8
g2
Ntp383
Rp384
(dp385
g12
S'ALKRIHKELNDLARDPPAQCRAGPVGDDMFHWQATIMGPNDSPYQGGVFFLTIHFPTDYPFKPPKVAFTTRIYHPNINSNGSIKLDILRSQWSPALTISKVLLSICSLLCDPNPDDPLVPEIARIYKTDREKYNRIAREWTQKYAM'
p386
sg14
S'3.44227e-102'
p387
sg16
g17
sg18
S'3ZNI_C'
p388
sg20
S'146'
p389
sg22
S'---------------------------------------------------------------------------------------------------------------------------------------ALKRIHKELNDLARDPPAQCRAGPVGDDMFHWQATIMGPNDSPYQGGVFFLTIHFPTDYPFKPPKVAFTTRIYHPNINSNGSIKLDILRSQWSPALTISKVLLSICSLLCDPNPDDPLVPEIARIYKTDREKYNRIAREWTQKYAM-'
p390
sg24
S'Chain C, Structure Of Phosphotyr363-cbl-b - Ubch5b-ub - Zap-70 Peptide Complex >gi|523309508|pdb|3ZNI|G Chain G, Structure Of Phosphotyr363-cbl-b - Ubch5b-ub - Zap-70 Peptide Complex >gi|523309509|pdb|3ZNI|K Chain K, Structure Of Phosphotyr363-cbl-b - Ubch5b-ub - Zap-70 Peptide Complex >gi|523309510|pdb|3ZNI|O Chain O, Structure Of Phosphotyr363-cbl-b - Ubch5b-ub - Zap-70 Peptide Complex >gi|806394275|pdb|4V3K|A Chain A, Rnf38-ubch5b-ub Complex >gi|806394276|pdb|4V3K|D Chain D, Rnf38-ubch5b-ub Complex'
p391
sg26
S'gi|523309507|pdb|3ZNI|C'
p392
sg28
I0
sg29
S'XX00000045'
p393
sbasb.